

Microchip Technology PIC18 LITE Macro Assembler V1.36 build -262312587 
                                                                                               Sat Apr 16 23:43:40 2016

Microchip Technology Omniscient Code Generator v1.36 (Free mode) build 201601150325
     1                           	processor	18F4550
     2                           	fnconf	rparam,??,?,0
     3                           	opt	pw 120
     4                           	opt	lm
     5                           	psect	idataCOMRAM,global,class=CODE,delta=1
     6                           	psect	smallconst,global,reloc=2,class=SMALLCONST,delta=1
     7                           	psect	cinit,global,reloc=2,class=CODE,delta=1
     8                           	psect	bitbssCOMRAM,global,bit,class=COMRAM,space=1,delta=1
     9                           	psect	bssCOMRAM,global,class=COMRAM,space=1,delta=1
    10                           	psect	dataCOMRAM,global,class=COMRAM,space=1,delta=1
    11                           	psect	bssBANK0,global,class=BANK0,space=1,delta=1
    12                           	psect	cstackBANK0,global,class=BANK0,space=1,delta=1
    13                           	psect	cstackCOMRAM,global,class=COMRAM,space=1,delta=1
    14                           	psect	text0,global,reloc=2,class=CODE,delta=1
    15                           	psect	text1,global,reloc=2,class=CODE,delta=1
    16                           	psect	text2,global,reloc=2,class=CODE,delta=1
    17                           	psect	text3,global,reloc=2,class=CODE,delta=1
    18                           	psect	text4,global,reloc=2,class=CODE,delta=1
    19                           	psect	text5,global,reloc=2,class=CODE,delta=1
    20                           	psect	text6,global,reloc=2,class=CODE,delta=1
    21                           	psect	text7,global,reloc=2,class=CODE,delta=1
    22                           	psect	text8,global,reloc=2,class=CODE,delta=1
    23                           	psect	text9,global,reloc=2,class=CODE,delta=1
    24                           	psect	text10,global,reloc=2,class=CODE,delta=1
    25                           	psect	text11,global,reloc=2,class=CODE,delta=1
    26                           	psect	text12,global,reloc=2,class=CODE,delta=1
    27                           	psect	text13,global,reloc=2,class=CODE,delta=1
    28                           	psect	text14,global,reloc=2,class=CODE,delta=1
    29                           	psect	text15,global,reloc=2,class=CODE,delta=1
    30                           	psect	text16,global,reloc=2,class=CODE,delta=1
    31                           	psect	text17,global,reloc=2,class=CODE,delta=1
    32                           	psect	text18,global,reloc=2,class=CODE,delta=1
    33                           	psect	text19,global,reloc=2,class=CODE,delta=1
    34                           	psect	text20,global,reloc=2,class=CODE,delta=1
    35                           	psect	text21,global,reloc=2,class=CODE,delta=1
    36                           	psect	intcode,global,reloc=2,class=CODE,delta=1
    37                           	psect	intcode_body,global,reloc=2,class=CODE,delta=1
    38                           	psect	text23,global,reloc=2,class=CODE,delta=1
    39                           	psect	text24,global,reloc=2,class=CODE,delta=1
    40                           	psect	text25,global,reloc=2,class=CODE,delta=1
    41                           	psect	text26,global,reloc=2,class=CODE,delta=1
    42                           	psect	text27,global,reloc=2,class=CODE,delta=1
    43                           	psect	text28,global,reloc=2,class=CODE,delta=1
    44                           	psect	text29,global,reloc=2,class=CODE,delta=1
    45                           	psect	intsave_regs,global,class=BIGRAM,space=1,delta=1
    46                           	psect	text30,global,reloc=2,class=CODE,delta=1
    47                           	psect	rparam,global,class=COMRAM,space=1,delta=1
    48                           	psect	temp,global,ovrld,common,class=COMRAM,space=1,delta=1
    49  0000                     
    50                           	psect	idataCOMRAM
    51  000BD6                     __pidataCOMRAM:
    52                           	opt stack 0
    53                           
    54                           ;initializer for _DHT_StateMachine
    55  000BD6  9A                 	db	low _Idle
    56  000BD7  0C                 	db	high _Idle
    57  000BD8  DE                 	db	low _FirstStateRequest
    58  000BD9  0A                 	db	high _FirstStateRequest
    59  000BDA  48                 	db	low _SecondStateRequest
    60  000BDB  0C                 	db	high _SecondStateRequest
    61  000BDC  BC                 	db	low _DHTSignalResponse
    62  000BDD  0B                 	db	high _DHTSignalResponse
    63  000BDE  FC                 	db	low _RecievingData
    64  000BDF  09                 	db	high _RecievingData
    65                           
    66                           ;initializer for _firstbyte
    67  000BE0  23                 	db	35
    68  000BE1  25                 	db	37
    69  000BE2  40                 	db	64
    70                           
    71                           ;initializer for _endbyte
    72  000BE3  24                 	db	36
    73                           
    74                           ;initializer for _prescaler
    75  000BE4  04                 	db	4
    76                           
    77                           ;initializer for _splitbyte
    78  000BE5  2B                 	db	43
    79                           
    80                           	psect	smallconst
    81  000800                     __psmallconst:
    82                           	opt stack 0
    83  000800  00                 	db	0
    84  000801  0C                 	db	12
    85  000802                     __end_of__SPBRG:
    86                           	opt stack 0
    87  0000                     _CCPR1	set	4030
    88  0000                     _TMR0	set	4054
    89  0000                     _TMR1	set	4046
    90  0000                     _CCP1CON	set	4029
    91  0000                     _CCP2CON	set	4026
    92  0000                     _CCPR1H	set	4031
    93  0000                     _CCPR1L	set	4030
    94  0000                     _CCPR2L	set	4027
    95  0000                     _INTCON2bits	set	4081
    96  0000                     _INTCON3bits	set	4080
    97  0000                     _INTCONbits	set	4082
    98  0000                     _IPR1bits	set	3999
    99  0000                     _IPR2bits	set	4002
   100  0000                     _OSCCON	set	4051
   101  0000                     _PIE1bits	set	3997
   102  0000                     _PIE2bits	set	4000
   103  0000                     _PR2	set	4043
   104  0000                     _RCONbits	set	4048
   105  0000                     _T0CON	set	4053
   106  0000                     _T1CON	set	4045
   107  0000                     _T1CONbits	set	4045
   108  0000                     _T2CON	set	4042
   109  0000                     _T3CON	set	4017
   110  0000                     _TMR0H	set	4055
   111  0000                     _TMR0L	set	4054
   112  0000                     _TMR1H	set	4047
   113  0000                     _TMR1L	set	4046
   114  0000                     _TRISBbits	set	3987
   115  0000                     _TRISCbits	set	3988
   116  0000                     _ADIF	set	31990
   117  0000                     _CCP1IE	set	31978
   118  0000                     _CCP1IF	set	31986
   119  0000                     _INT2IF	set	32641
   120  0000                     _INTEDG2	set	32652
   121  0000                     _LATB3	set	31827
   122  0000                     _LATC2	set	31834
   123  0000                     _T0IF	set	32658
   124  0000                     _T1OSCEN	set	32363
   125  0000                     _T1RUN	set	32366
   126  0000                     _TMR0IF	set	32658
   127  0000                     _TMR0ON	set	32431
   128  0000                     _TMR1CS	set	32361
   129  0000                     _TMR1ON	set	32360
   130                           
   131                           ; #config settings
   132  000802  00                 	db	0	; dummy byte at the end
   133  0000                     
   134                           	psect	cinit
   135  000A50                     __pcinit:
   136                           	opt stack 0
   137  000A50                     start_initialization:
   138                           	opt stack 0
   139  000A50                     __initialization:
   140                           	opt stack 0
   141                           
   142                           ; Clear objects allocated to BANK0 (80 bytes)
   143  000A50  EE00  F060         	lfsr	0,__pbssBANK0
   144  000A54  0E50               	movlw	80
   145  000A56                     clear_0:
   146  000A56  6AEE               	clrf	postinc0,c
   147  000A58  06E8               	decf	wreg,f,c
   148  000A5A  E1FD               	bnz	clear_0
   149                           
   150                           ; Clear objects allocated to BITCOMRAM (1 bytes)
   151  000A5C  6A4E               	clrf	(__pbitbssCOMRAM/(0+8))& (0+255),c
   152                           
   153                           ; Clear objects allocated to COMRAM (35 bytes)
   154  000A5E  EE00  F001         	lfsr	0,__pbssCOMRAM
   155  000A62  0E23               	movlw	35
   156  000A64                     clear_1:
   157  000A64  6AEE               	clrf	postinc0,c
   158  000A66  06E8               	decf	wreg,f,c
   159  000A68  E1FD               	bnz	clear_1
   160                           
   161                           ; Initialize objects allocated to COMRAM (16 bytes)
   162                           ; load TBLPTR registers with __pidataCOMRAM
   163  000A6A  0ED6               	movlw	low __pidataCOMRAM
   164  000A6C  6EF6               	movwf	tblptrl,c
   165  000A6E  0E0B               	movlw	high __pidataCOMRAM
   166  000A70  6EF7               	movwf	tblptrh,c
   167  000A72  0E00               	movlw	low (__pidataCOMRAM shr (0+16))
   168  000A74  6EF8               	movwf	tblptru,c
   169  000A76  EE00  F03E         	lfsr	0,__pdataCOMRAM
   170  000A7A  EE10 F010          	lfsr	1,16
   171  000A7E                     copy_data0:
   172  000A7E  0009               	tblrd		*+
   173  000A80  CFF5 FFEE          	movff	tablat,postinc0
   174  000A84  50E5               	movf	postdec1,w,c
   175  000A86  50E1               	movf	fsr1l,w,c
   176  000A88  E1FA               	bnz	copy_data0
   177  000A8A                     end_of_initialization:
   178                           	opt stack 0
   179  000A8A                     __end_of__initialization:
   180                           	opt stack 0
   181  000A8A  904F               	bcf	int$flags,0,c	;clear compiler interrupt flag (level 1)
   182  000A8C  924F               	bcf	int$flags,1,c	;clear compiler interrupt flag (level 2)
   183  000A8E  0E00               	movlw	low (__Lmediumconst shr (0+16))
   184  000A90  6EF8               	movwf	tblptru,c
   185  000A92  0100               	movlb	0
   186  000A94  EF89  F005         	goto	_main	;jump to C main() function
   187                           tblptru	equ	0xFF8
   188                           tblptrh	equ	0xFF7
   189                           tblptrl	equ	0xFF6
   190                           tablat	equ	0xFF5
   191                           postinc0	equ	0xFEE
   192                           wreg	equ	0xFE8
   193                           postdec1	equ	0xFE5
   194                           fsr1l	equ	0xFE1
   195                           
   196                           	psect	bitbssCOMRAM
   197  000270                     __pbitbssCOMRAM:
   198                           	opt stack 0
   199  000270                     _Door_f:
   200                           	opt stack 0
   201  000270                     	ds	1
   202  000271                     _Light_f:
   203                           	opt stack 0
   204  000271                     	ds	1
   205  000272                     _Night_f:
   206                           	opt stack 0
   207  000272                     	ds	1
   208                           tblptru	equ	0xFF8
   209                           tblptrh	equ	0xFF7
   210                           tblptrl	equ	0xFF6
   211                           tablat	equ	0xFF5
   212                           postinc0	equ	0xFEE
   213                           wreg	equ	0xFE8
   214                           postdec1	equ	0xFE5
   215                           fsr1l	equ	0xFE1
   216                           
   217                           	psect	bssCOMRAM
   218  000001                     __pbssCOMRAM:
   219                           	opt stack 0
   220  000001                     _temp:
   221                           	opt stack 0
   222  000001                     	ds	6
   223  000007                     _LSb:
   224                           	opt stack 0
   225  000007                     	ds	2
   226  000009                     _MSb:
   227                           	opt stack 0
   228  000009                     	ds	2
   229  00000B                     _PWMValue:
   230                           	opt stack 0
   231  00000B                     	ds	2
   232  00000D                     _counts:
   233                           	opt stack 0
   234  00000D                     	ds	2
   235  00000F                     _lasttime:
   236                           	opt stack 0
   237  00000F                     	ds	2
   238  000011                     _DecimalHumidity:
   239                           	opt stack 0
   240  000011                     	ds	1
   241  000012                     _DecimalTemperature:
   242                           	opt stack 0
   243  000012                     	ds	1
   244  000013                     _IntegerHumidity:
   245                           	opt stack 0
   246  000013                     	ds	1
   247  000014                     _IntegerTemperature:
   248                           	opt stack 0
   249  000014                     	ds	1
   250  000015                     _TimerCounter:
   251                           	opt stack 0
   252  000015                     	ds	1
   253  000016                     _bitcount:
   254                           	opt stack 0
   255  000016                     	ds	1
   256  000017                     _bytecount:
   257                           	opt stack 0
   258  000017                     	ds	1
   259  000018                     _counter:
   260                           	opt stack 0
   261  000018                     	ds	1
   262  000019                     _f_frameready:
   263                           	opt stack 0
   264  000019                     	ds	1
   265  00001A                     _f_slave1:
   266                           	opt stack 0
   267  00001A                     	ds	1
   268  00001B                     _f_slave2:
   269                           	opt stack 0
   270  00001B                     	ds	1
   271  00001C                     _firstvalue:
   272                           	opt stack 0
   273  00001C                     	ds	1
   274  00001D                     _firstvaluespaces:
   275                           	opt stack 0
   276  00001D                     	ds	1
   277  00001E                     _frame:
   278                           	opt stack 0
   279  00001E                     	ds	1
   280  00001F                     _mask:
   281                           	opt stack 0
   282  00001F                     	ds	1
   283  000020                     _secondvalue:
   284                           	opt stack 0
   285  000020                     	ds	1
   286  000021                     _secondvaluespaces:
   287                           	opt stack 0
   288  000021                     	ds	1
   289  000022                     _state:
   290                           	opt stack 0
   291  000022                     	ds	1
   292  000023                     _time:
   293                           	opt stack 0
   294  000023                     	ds	1
   295                           tblptru	equ	0xFF8
   296                           tblptrh	equ	0xFF7
   297                           tblptrl	equ	0xFF6
   298                           tablat	equ	0xFF5
   299                           postinc0	equ	0xFEE
   300                           wreg	equ	0xFE8
   301                           postdec1	equ	0xFE5
   302                           fsr1l	equ	0xFE1
   303                           
   304                           	psect	dataCOMRAM
   305  00003E                     __pdataCOMRAM:
   306                           	opt stack 0
   307  00003E                     _DHT_StateMachine:
   308                           	opt stack 0
   309  00003E                     	ds	10
   310  000048                     _firstbyte:
   311                           	opt stack 0
   312  000048                     	ds	3
   313  00004B                     _endbyte:
   314                           	opt stack 0
   315  00004B                     	ds	1
   316  00004C                     _prescaler:
   317                           	opt stack 0
   318  00004C                     	ds	1
   319  00004D                     _splitbyte:
   320                           	opt stack 0
   321  00004D                     	ds	1
   322                           tblptru	equ	0xFF8
   323                           tblptrh	equ	0xFF7
   324                           tblptrl	equ	0xFF6
   325                           tablat	equ	0xFF5
   326                           postinc0	equ	0xFEE
   327                           wreg	equ	0xFE8
   328                           postdec1	equ	0xFE5
   329                           fsr1l	equ	0xFE1
   330                           
   331                           	psect	bssBANK0
   332  000060                     __pbssBANK0:
   333                           	opt stack 0
   334  000060                     _times:
   335                           	opt stack 0
   336  000060                     	ds	80
   337                           tblptru	equ	0xFF8
   338                           tblptrh	equ	0xFF7
   339                           tblptrl	equ	0xFF6
   340                           tablat	equ	0xFF5
   341                           postinc0	equ	0xFEE
   342                           wreg	equ	0xFE8
   343                           postdec1	equ	0xFE5
   344                           fsr1l	equ	0xFE1
   345                           
   346                           	psect	cstackBANK0
   347  0000B0                     __pcstackBANK0:
   348                           	opt stack 0
   349  0000B0                     ___awdiv@counter:
   350                           	opt stack 0
   351                           
   352                           ; 1 bytes @ 0x0
   353  0000B0                     	ds	1
   354  0000B1                     ___awdiv@sign:
   355                           	opt stack 0
   356                           
   357                           ; 1 bytes @ 0x1
   358  0000B1                     	ds	1
   359  0000B2                     ___awdiv@quotient:
   360                           	opt stack 0
   361                           
   362                           ; 2 bytes @ 0x2
   363  0000B2                     	ds	2
   364  0000B4                     ??_SetDutyCycle:
   365                           
   366                           ; 1 bytes @ 0x4
   367  0000B4                     	ds	2
   368  0000B6                     SetDutyCycle@dutycycle:
   369                           	opt stack 0
   370                           
   371                           ; 1 bytes @ 0x6
   372  0000B6                     	ds	1
   373  0000B7                     SetPWM@dutycycle:
   374                           	opt stack 0
   375                           
   376                           ; 1 bytes @ 0x7
   377  0000B7                     	ds	1
   378                           tblptru	equ	0xFF8
   379                           tblptrh	equ	0xFF7
   380                           tblptrl	equ	0xFF6
   381                           tablat	equ	0xFF5
   382                           postinc0	equ	0xFEE
   383                           wreg	equ	0xFE8
   384                           postdec1	equ	0xFE5
   385                           fsr1l	equ	0xFE1
   386                           
   387                           	psect	cstackCOMRAM
   388  000024                     __pcstackCOMRAM:
   389                           	opt stack 0
   390  000024                     ??_RecievingData:
   391  000024                     i2TMR0_WRITE_HIGH@valorHigh:
   392                           	opt stack 0
   393  000024                     i2TMR0_WRITE_LOW@valorLow:
   394                           	opt stack 0
   395                           
   396                           ; 1 bytes @ 0x0
   397  000024                     	ds	2
   398  000026                     ??_HighISR:
   399                           
   400                           ; 1 bytes @ 0x2
   401  000026                     	ds	14
   402  000034                     ?___wmul:
   403                           	opt stack 0
   404  000034                     TMR0_INIT@bits:
   405                           	opt stack 0
   406  000034                     TMR0_WRITE_HIGH@valorHigh:
   407                           	opt stack 0
   408  000034                     TMR0_WRITE_LOW@valorLow:
   409                           	opt stack 0
   410  000034                     ___wmul@multiplier:
   411                           	opt stack 0
   412                           
   413                           ; 2 bytes @ 0x10
   414  000034                     	ds	1
   415  000035                     TMR0_INIT@T0PS:
   416                           	opt stack 0
   417                           
   418                           ; 1 bytes @ 0x11
   419  000035                     	ds	1
   420  000036                     ___wmul@multiplicand:
   421                           	opt stack 0
   422                           
   423                           ; 2 bytes @ 0x12
   424  000036                     	ds	2
   425  000038                     ___wmul@product:
   426                           	opt stack 0
   427                           
   428                           ; 2 bytes @ 0x14
   429  000038                     	ds	2
   430  00003A                     ?___awdiv:
   431                           	opt stack 0
   432  00003A                     ___awdiv@dividend:
   433                           	opt stack 0
   434                           
   435                           ; 2 bytes @ 0x16
   436  00003A                     	ds	2
   437  00003C                     ___awdiv@divisor:
   438                           	opt stack 0
   439                           
   440                           ; 2 bytes @ 0x18
   441  00003C                     	ds	2
   442  00003E                     tblptru	equ	0xFF8
   443                           tblptrh	equ	0xFF7
   444                           tblptrl	equ	0xFF6
   445                           tablat	equ	0xFF5
   446                           postinc0	equ	0xFEE
   447                           wreg	equ	0xFE8
   448                           postdec1	equ	0xFE5
   449                           fsr1l	equ	0xFE1
   450                           
   451                           ; 1 bytes @ 0x1A
   452 ;;
   453 ;;Main: autosize = 0, tempsize = 0, incstack = 0, save=0
   454 ;;
   455 ;; *************** function _main *****************
   456 ;; Defined at:
   457 ;;		line 76 in file "Main.c"
   458 ;; Parameters:    Size  Location     Type
   459 ;;		None
   460 ;; Auto vars:     Size  Location     Type
   461 ;;		None
   462 ;; Return value:  Size  Location     Type
   463 ;;                  1    wreg      void 
   464 ;; Registers used:
   465 ;;		wreg, status,2, status,0, prodl, prodh, cstack
   466 ;; Tracked objects:
   467 ;;		On entry : 0/0
   468 ;;		On exit  : 0/0
   469 ;;		Unchanged: 0/0
   470 ;; Data sizes:     COMRAM   BANK0   BANK1   BANK2   BANK3   BANK4   BANK5   BANK6   BANK7
   471 ;;      Params:         0       0       0       0       0       0       0       0       0
   472 ;;      Locals:         0       0       0       0       0       0       0       0       0
   473 ;;      Temps:          0       0       0       0       0       0       0       0       0
   474 ;;      Totals:         0       0       0       0       0       0       0       0       0
   475 ;;Total ram usage:        0 bytes
   476 ;; Hardware stack levels required when called:    6
   477 ;; This function calls:
   478 ;;		_InitDHT11Driver
   479 ;;		_Interrupt_Init
   480 ;;		_TMR0_INIT
   481 ;;		_TMR0_WRITE_HIGH
   482 ;;		_TMR0_WRITE_LOW
   483 ;;		_TurnOnLights
   484 ;; This function is called by:
   485 ;;		Startup code after reset
   486 ;; This function uses a non-reentrant model
   487 ;;
   488                           
   489                           	psect	text0
   490  000B12                     __ptext0:
   491                           	opt stack 0
   492  000B12                     _main:
   493                           	opt stack 25
   494                           
   495                           ;Main.c: 78: OSCCON=0b01101100;
   496                           
   497                           ;incstack = 0
   498  000B12  0E6C               	movlw	108
   499  000B14  6ED3               	movwf	4051,c	;volatile
   500                           
   501                           ;Main.c: 79: Interrupt_Init();
   502  000B16  ECAF  F005         	call	_Interrupt_Init	;wreg free
   503                           
   504                           ;Main.c: 81: TMR0_INIT();
   505  000B1A  ECC0  F005         	call	_TMR0_INIT	;wreg free
   506                           
   507                           ;Main.c: 82: TMR0ON = 0;
   508  000B1E  9ED5               	bcf	4053,7,c	;volatile
   509                           
   510                           ;Main.c: 83: TMR0_WRITE_HIGH(0xF0);
   511  000B20  0EF0               	movlw	240
   512  000B22  EC3C  F006         	call	_TMR0_WRITE_HIGH
   513                           
   514                           ;Main.c: 84: TMR0_WRITE_LOW(0xBD);
   515  000B26  0EBD               	movlw	189
   516  000B28  EC38  F006         	call	_TMR0_WRITE_LOW
   517                           
   518                           ;Main.c: 85: TMR0ON = 1;
   519  000B2C  8ED5               	bsf	4053,7,c	;volatile
   520                           
   521                           ;Main.c: 87: InitDHT11Driver();
   522  000B2E  EC2F  F006         	call	_InitDHT11Driver	;wreg free
   523                           
   524                           ;Main.c: 89: TurnOnLights();
   525  000B32  EC18  F006         	call	_TurnOnLights	;wreg free
   526  000B36                     l90:
   527  000B36  D7FF               	goto	l90
   528  000B38                     __end_of_main:
   529                           	opt stack 0
   530                           tblptru	equ	0xFF8
   531                           tblptrh	equ	0xFF7
   532                           tblptrl	equ	0xFF6
   533                           tablat	equ	0xFF5
   534                           postinc0	equ	0xFEE
   535                           wreg	equ	0xFE8
   536                           postdec1	equ	0xFE5
   537                           fsr1l	equ	0xFE1
   538                           
   539 ;; *************** function _TurnOnLights *****************
   540 ;; Defined at:
   541 ;;		line 7 in file "LedDriver.c"
   542 ;; Parameters:    Size  Location     Type
   543 ;;		None
   544 ;; Auto vars:     Size  Location     Type
   545 ;;		None
   546 ;; Return value:  Size  Location     Type
   547 ;;                  2   36[None  ] int 
   548 ;; Registers used:
   549 ;;		wreg, status,2, status,0, prodl, prodh, cstack
   550 ;; Tracked objects:
   551 ;;		On entry : 0/0
   552 ;;		On exit  : 0/0
   553 ;;		Unchanged: 0/0
   554 ;; Data sizes:     COMRAM   BANK0   BANK1   BANK2   BANK3   BANK4   BANK5   BANK6   BANK7
   555 ;;      Params:         0       0       0       0       0       0       0       0       0
   556 ;;      Locals:         0       0       0       0       0       0       0       0       0
   557 ;;      Temps:          0       0       0       0       0       0       0       0       0
   558 ;;      Totals:         0       0       0       0       0       0       0       0       0
   559 ;;Total ram usage:        0 bytes
   560 ;; Hardware stack levels used:    1
   561 ;; Hardware stack levels required when called:    5
   562 ;; This function calls:
   563 ;;		_SetPWM
   564 ;;		_StartPWM
   565 ;; This function is called by:
   566 ;;		_main
   567 ;; This function uses a non-reentrant model
   568 ;;
   569                           
   570                           	psect	text1
   571  000C30                     __ptext1:
   572                           	opt stack 0
   573  000C30                     _TurnOnLights:
   574                           	opt stack 25
   575                           
   576                           ;LedDriver.c: 8: SetPWM(50);
   577                           
   578                           ;incstack = 0
   579  000C30  0E32               	movlw	50
   580  000C32  ECD0  F005         	call	_SetPWM
   581                           
   582                           ;LedDriver.c: 9: StartPWM();
   583  000C36  EC34  F006         	call	_StartPWM	;wreg free
   584  000C3A  0012               	return		;funcret
   585  000C3C                     __end_of_TurnOnLights:
   586                           	opt stack 0
   587                           tblptru	equ	0xFF8
   588                           tblptrh	equ	0xFF7
   589                           tblptrl	equ	0xFF6
   590                           tablat	equ	0xFF5
   591                           postinc0	equ	0xFEE
   592                           wreg	equ	0xFE8
   593                           postdec1	equ	0xFE5
   594                           fsr1l	equ	0xFE1
   595                           
   596 ;; *************** function _StartPWM *****************
   597 ;; Defined at:
   598 ;;		line 16 in file "PWM.c"
   599 ;; Parameters:    Size  Location     Type
   600 ;;		None
   601 ;; Auto vars:     Size  Location     Type
   602 ;;		None
   603 ;; Return value:  Size  Location     Type
   604 ;;                  1    wreg      void 
   605 ;; Registers used:
   606 ;;		wreg, status,2
   607 ;; Tracked objects:
   608 ;;		On entry : 0/0
   609 ;;		On exit  : 0/0
   610 ;;		Unchanged: 0/0
   611 ;; Data sizes:     COMRAM   BANK0   BANK1   BANK2   BANK3   BANK4   BANK5   BANK6   BANK7
   612 ;;      Params:         0       0       0       0       0       0       0       0       0
   613 ;;      Locals:         0       0       0       0       0       0       0       0       0
   614 ;;      Temps:          0       0       0       0       0       0       0       0       0
   615 ;;      Totals:         0       0       0       0       0       0       0       0       0
   616 ;;Total ram usage:        0 bytes
   617 ;; Hardware stack levels used:    1
   618 ;; Hardware stack levels required when called:    2
   619 ;; This function calls:
   620 ;;		Nothing
   621 ;; This function is called by:
   622 ;;		_TurnOnLights
   623 ;; This function uses a non-reentrant model
   624 ;;
   625                           
   626                           	psect	text2
   627  000C68                     __ptext2:
   628                           	opt stack 0
   629  000C68                     _StartPWM:
   630                           	opt stack 27
   631                           
   632                           ;PWM.c: 17: CCP2CON=0x0C;
   633                           
   634                           ;incstack = 0
   635  000C68  0E0C               	movlw	12
   636  000C6A  6EBA               	movwf	4026,c	;volatile
   637                           
   638                           ;PWM.c: 18: T1OSCEN=1U;
   639  000C6C  86CD               	bsf	4045,3,c	;volatile
   640  000C6E  0012               	return		;funcret
   641  000C70                     __end_of_StartPWM:
   642                           	opt stack 0
   643                           tblptru	equ	0xFF8
   644                           tblptrh	equ	0xFF7
   645                           tblptrl	equ	0xFF6
   646                           tablat	equ	0xFF5
   647                           postinc0	equ	0xFEE
   648                           wreg	equ	0xFE8
   649                           postdec1	equ	0xFE5
   650                           fsr1l	equ	0xFE1
   651                           
   652 ;; *************** function _SetPWM *****************
   653 ;; Defined at:
   654 ;;		line 43 in file "PWM.c"
   655 ;; Parameters:    Size  Location     Type
   656 ;;  dutycycle       1    wreg     unsigned char 
   657 ;; Auto vars:     Size  Location     Type
   658 ;;  dutycycle       1    7[BANK0 ] unsigned char 
   659 ;; Return value:  Size  Location     Type
   660 ;;                  1    wreg      void 
   661 ;; Registers used:
   662 ;;		wreg, status,2, status,0, prodl, prodh, cstack
   663 ;; Tracked objects:
   664 ;;		On entry : 0/0
   665 ;;		On exit  : 0/0
   666 ;;		Unchanged: 0/0
   667 ;; Data sizes:     COMRAM   BANK0   BANK1   BANK2   BANK3   BANK4   BANK5   BANK6   BANK7
   668 ;;      Params:         0       0       0       0       0       0       0       0       0
   669 ;;      Locals:         0       1       0       0       0       0       0       0       0
   670 ;;      Temps:          0       0       0       0       0       0       0       0       0
   671 ;;      Totals:         0       1       0       0       0       0       0       0       0
   672 ;;Total ram usage:        1 bytes
   673 ;; Hardware stack levels used:    1
   674 ;; Hardware stack levels required when called:    4
   675 ;; This function calls:
   676 ;;		_SetDutyCycle
   677 ;;		_SetPeriod
   678 ;; This function is called by:
   679 ;;		_TurnOnLights
   680 ;; This function uses a non-reentrant model
   681 ;;
   682                           
   683                           	psect	text3
   684  000BA0                     __ptext3:
   685                           	opt stack 0
   686  000BA0                     _SetPWM:
   687                           	opt stack 25
   688                           
   689                           ;incstack = 0
   690                           ;SetPWM@dutycycle stored from wreg
   691  000BA0  0100               	movlb	0	; () banked
   692  000BA2  6FB7               	movwf	SetPWM@dutycycle& (0+255),b
   693                           
   694                           ;PWM.c: 44: T2CON=0x00;
   695  000BA4  0E00               	movlw	0
   696  000BA6  6ECA               	movwf	4042,c	;volatile
   697                           
   698                           ;PWM.c: 45: SetPeriod();
   699  000BA8  EC48  F006         	call	_SetPeriod	;wreg free
   700                           
   701                           ;PWM.c: 46: SetDutyCycle(dutycycle);
   702  000BAC  0100               	movlb	0	; () banked
   703  000BAE  51B7               	movf	SetPWM@dutycycle& (0+255),w,b
   704  000BB0  ECCA  F004         	call	_SetDutyCycle
   705                           
   706                           ;PWM.c: 47: (TRISBbits.TRISB3 = 0);
   707  000BB4  9693               	bcf	3987,3,c	;volatile
   708                           
   709                           ;PWM.c: 48: T2CON=0b110;
   710  000BB6  0E06               	movlw	6
   711  000BB8  6ECA               	movwf	4042,c	;volatile
   712  000BBA  0012               	return		;funcret
   713  000BBC                     __end_of_SetPWM:
   714                           	opt stack 0
   715                           tblptru	equ	0xFF8
   716                           tblptrh	equ	0xFF7
   717                           tblptrl	equ	0xFF6
   718                           tablat	equ	0xFF5
   719                           postinc0	equ	0xFEE
   720                           wreg	equ	0xFE8
   721                           postdec1	equ	0xFE5
   722                           fsr1l	equ	0xFE1
   723                           
   724 ;; *************** function _SetPeriod *****************
   725 ;; Defined at:
   726 ;;		line 27 in file "PWM.c"
   727 ;; Parameters:    Size  Location     Type
   728 ;;		None
   729 ;; Auto vars:     Size  Location     Type
   730 ;;		None
   731 ;; Return value:  Size  Location     Type
   732 ;;                  1    wreg      void 
   733 ;; Registers used:
   734 ;;		wreg, status,2
   735 ;; Tracked objects:
   736 ;;		On entry : 0/0
   737 ;;		On exit  : 0/0
   738 ;;		Unchanged: 0/0
   739 ;; Data sizes:     COMRAM   BANK0   BANK1   BANK2   BANK3   BANK4   BANK5   BANK6   BANK7
   740 ;;      Params:         0       0       0       0       0       0       0       0       0
   741 ;;      Locals:         0       0       0       0       0       0       0       0       0
   742 ;;      Temps:          0       0       0       0       0       0       0       0       0
   743 ;;      Totals:         0       0       0       0       0       0       0       0       0
   744 ;;Total ram usage:        0 bytes
   745 ;; Hardware stack levels used:    1
   746 ;; Hardware stack levels required when called:    2
   747 ;; This function calls:
   748 ;;		Nothing
   749 ;; This function is called by:
   750 ;;		_SetPWM
   751 ;; This function uses a non-reentrant model
   752 ;;
   753                           
   754                           	psect	text4
   755  000C90                     __ptext4:
   756                           	opt stack 0
   757  000C90                     _SetPeriod:
   758                           	opt stack 26
   759                           
   760                           ;PWM.c: 29: PR2=124;
   761                           
   762                           ;incstack = 0
   763  000C90  0E7C               	movlw	124
   764  000C92  6ECB               	movwf	4043,c	;volatile
   765  000C94  0012               	return		;funcret
   766  000C96                     __end_of_SetPeriod:
   767                           	opt stack 0
   768                           tblptru	equ	0xFF8
   769                           tblptrh	equ	0xFF7
   770                           tblptrl	equ	0xFF6
   771                           tablat	equ	0xFF5
   772                           postinc0	equ	0xFEE
   773                           wreg	equ	0xFE8
   774                           postdec1	equ	0xFE5
   775                           fsr1l	equ	0xFE1
   776                           
   777 ;; *************** function _SetDutyCycle *****************
   778 ;; Defined at:
   779 ;;		line 32 in file "PWM.c"
   780 ;; Parameters:    Size  Location     Type
   781 ;;  dutycycle       1    wreg     unsigned char 
   782 ;; Auto vars:     Size  Location     Type
   783 ;;  dutycycle       1    6[BANK0 ] unsigned char 
   784 ;; Return value:  Size  Location     Type
   785 ;;                  1    wreg      void 
   786 ;; Registers used:
   787 ;;		wreg, status,2, status,0, prodl, prodh, cstack
   788 ;; Tracked objects:
   789 ;;		On entry : 0/0
   790 ;;		On exit  : 0/0
   791 ;;		Unchanged: 0/0
   792 ;; Data sizes:     COMRAM   BANK0   BANK1   BANK2   BANK3   BANK4   BANK5   BANK6   BANK7
   793 ;;      Params:         0       0       0       0       0       0       0       0       0
   794 ;;      Locals:         0       1       0       0       0       0       0       0       0
   795 ;;      Temps:          0       2       0       0       0       0       0       0       0
   796 ;;      Totals:         0       3       0       0       0       0       0       0       0
   797 ;;Total ram usage:        3 bytes
   798 ;; Hardware stack levels used:    1
   799 ;; Hardware stack levels required when called:    3
   800 ;; This function calls:
   801 ;;		___awdiv
   802 ;;		___wmul
   803 ;; This function is called by:
   804 ;;		_SetPWM
   805 ;; This function uses a non-reentrant model
   806 ;;
   807                           
   808                           	psect	text5
   809  000994                     __ptext5:
   810                           	opt stack 0
   811  000994                     _SetDutyCycle:
   812                           	opt stack 25
   813                           
   814                           ;incstack = 0
   815                           ;SetDutyCycle@dutycycle stored from wreg
   816  000994  0100               	movlb	0	; () banked
   817  000996  6FB6               	movwf	SetDutyCycle@dutycycle& (0+255),b
   818                           
   819                           ;PWM.c: 33: PWMValue=((dutycycle)*470)/100;
   820  000998  C0B6  F034         	movff	SetDutyCycle@dutycycle,___wmul@multiplier
   821  00099C  6A35               	clrf	___wmul@multiplier+1,c
   822  00099E  0E01               	movlw	1
   823  0009A0  6E37               	movwf	___wmul@multiplicand+1,c
   824  0009A2  0ED6               	movlw	214
   825  0009A4  6E36               	movwf	___wmul@multiplicand,c
   826  0009A6  EC9C  F005         	call	___wmul	;wreg free
   827  0009AA  C034  F03A         	movff	?___wmul,___awdiv@dividend
   828  0009AE  C035  F03B         	movff	?___wmul+1,___awdiv@dividend+1
   829  0009B2  0E00               	movlw	0
   830  0009B4  6E3D               	movwf	___awdiv@divisor+1,c
   831  0009B6  0E64               	movlw	100
   832  0009B8  6E3C               	movwf	___awdiv@divisor,c
   833  0009BA  EC7C  F004         	call	___awdiv	;wreg free
   834  0009BE  C03A  F00B         	movff	?___awdiv,_PWMValue
   835  0009C2  C03B  F00C         	movff	?___awdiv+1,_PWMValue+1
   836                           
   837                           ;PWM.c: 34: LSb=PWMValue&0x03;
   838  0009C6  0E03               	movlw	3
   839  0009C8  140B               	andwf	_PWMValue,w,c
   840  0009CA  6E07               	movwf	_LSb,c
   841  0009CC  6A08               	clrf	_LSb+1,c
   842                           
   843                           ;PWM.c: 35: MSb=PWMValue>>2;
   844  0009CE  C00B  F0B4         	movff	_PWMValue,??_SetDutyCycle
   845  0009D2  C00C  F0B5         	movff	_PWMValue+1,??_SetDutyCycle+1
   846  0009D6  0100               	movlb	0	; () banked
   847  0009D8  90D8               	bcf	status,0,c
   848  0009DA  33B5               	rrcf	(??_SetDutyCycle+1)& (0+255),f,b
   849  0009DC  33B4               	rrcf	??_SetDutyCycle& (0+255),f,b
   850  0009DE  0100               	movlb	0	; () banked
   851  0009E0  90D8               	bcf	status,0,c
   852  0009E2  33B5               	rrcf	(??_SetDutyCycle+1)& (0+255),f,b
   853  0009E4  33B4               	rrcf	??_SetDutyCycle& (0+255),f,b
   854  0009E6  C0B4  F009         	movff	??_SetDutyCycle,_MSb
   855  0009EA  C0B5  F00A         	movff	??_SetDutyCycle+1,_MSb+1
   856                           
   857                           ; BSR set to: 0
   858                           ;PWM.c: 37: CCPR2L=MSb;
   859  0009EE  C009  FFBB         	movff	_MSb,4027	;volatile
   860                           
   861                           ; BSR set to: 0
   862                           ;PWM.c: 38: CCP2CON=CCP2CON|(LSb<<4);
   863  0009F2  3807               	swapf	_LSb,w,c
   864  0009F4  0BF0               	andlw	240
   865  0009F6  10BA               	iorwf	4026,w,c
   866  0009F8  6EBA               	movwf	4026,c	;volatile
   867                           
   868                           ; BSR set to: 0
   869  0009FA  0012               	return		;funcret
   870  0009FC                     __end_of_SetDutyCycle:
   871                           	opt stack 0
   872                           tblptru	equ	0xFF8
   873                           tblptrh	equ	0xFF7
   874                           tblptrl	equ	0xFF6
   875                           tablat	equ	0xFF5
   876                           postinc0	equ	0xFEE
   877                           wreg	equ	0xFE8
   878                           postdec1	equ	0xFE5
   879                           fsr1l	equ	0xFE1
   880                           status	equ	0xFD8
   881                           
   882 ;; *************** function ___wmul *****************
   883 ;; Defined at:
   884 ;;		line 15 in file "C:\Program Files (x86)\Microchip\xc8\v1.36\sources\common\Umul16.c"
   885 ;; Parameters:    Size  Location     Type
   886 ;;  multiplier      2   16[COMRAM] unsigned int 
   887 ;;  multiplicand    2   18[COMRAM] unsigned int 
   888 ;; Auto vars:     Size  Location     Type
   889 ;;  product         2   20[COMRAM] unsigned int 
   890 ;; Return value:  Size  Location     Type
   891 ;;                  2   16[COMRAM] unsigned int 
   892 ;; Registers used:
   893 ;;		wreg, status,2, status,0, prodl, prodh
   894 ;; Tracked objects:
   895 ;;		On entry : 0/0
   896 ;;		On exit  : 0/0
   897 ;;		Unchanged: 0/0
   898 ;; Data sizes:     COMRAM   BANK0   BANK1   BANK2   BANK3   BANK4   BANK5   BANK6   BANK7
   899 ;;      Params:         4       0       0       0       0       0       0       0       0
   900 ;;      Locals:         2       0       0       0       0       0       0       0       0
   901 ;;      Temps:          0       0       0       0       0       0       0       0       0
   902 ;;      Totals:         6       0       0       0       0       0       0       0       0
   903 ;;Total ram usage:        6 bytes
   904 ;; Hardware stack levels used:    1
   905 ;; Hardware stack levels required when called:    2
   906 ;; This function calls:
   907 ;;		Nothing
   908 ;; This function is called by:
   909 ;;		_SetDutyCycle
   910 ;; This function uses a non-reentrant model
   911 ;;
   912                           
   913                           	psect	text6
   914  000B38                     __ptext6:
   915                           	opt stack 0
   916  000B38                     ___wmul:
   917                           	opt stack 25
   918                           
   919                           ; BSR set to: 0
   920                           ;incstack = 0
   921  000B38  5034               	movf	___wmul@multiplier,w,c
   922  000B3A  0236               	mulwf	___wmul@multiplicand,c
   923  000B3C  CFF3 F038          	movff	prodl,___wmul@product
   924  000B40  CFF4 F039          	movff	prodh,___wmul@product+1
   925  000B44  5034               	movf	___wmul@multiplier,w,c
   926  000B46  0237               	mulwf	___wmul@multiplicand+1,c
   927  000B48  50F3               	movf	prodl,w,c
   928  000B4A  2639               	addwf	___wmul@product+1,f,c
   929  000B4C  5035               	movf	___wmul@multiplier+1,w,c
   930  000B4E  0236               	mulwf	___wmul@multiplicand,c
   931  000B50  50F3               	movf	prodl,w,c
   932  000B52  2639               	addwf	___wmul@product+1,f,c
   933  000B54  C038  F034         	movff	___wmul@product,?___wmul
   934  000B58  C039  F035         	movff	___wmul@product+1,?___wmul+1
   935  000B5C  0012               	return	
   936  000B5E                     __end_of___wmul:
   937                           	opt stack 0
   938                           tblptru	equ	0xFF8
   939                           tblptrh	equ	0xFF7
   940                           tblptrl	equ	0xFF6
   941                           tablat	equ	0xFF5
   942                           prodh	equ	0xFF4
   943                           prodl	equ	0xFF3
   944                           postinc0	equ	0xFEE
   945                           wreg	equ	0xFE8
   946                           postdec1	equ	0xFE5
   947                           fsr1l	equ	0xFE1
   948                           status	equ	0xFD8
   949                           
   950 ;; *************** function ___awdiv *****************
   951 ;; Defined at:
   952 ;;		line 8 in file "C:\Program Files (x86)\Microchip\xc8\v1.36\sources\common\awdiv.c"
   953 ;; Parameters:    Size  Location     Type
   954 ;;  dividend        2   22[COMRAM] int 
   955 ;;  divisor         2   24[COMRAM] int 
   956 ;; Auto vars:     Size  Location     Type
   957 ;;  quotient        2    2[BANK0 ] int 
   958 ;;  sign            1    1[BANK0 ] unsigned char 
   959 ;;  counter         1    0[BANK0 ] unsigned char 
   960 ;; Return value:  Size  Location     Type
   961 ;;                  2   22[COMRAM] int 
   962 ;; Registers used:
   963 ;;		wreg, status,2, status,0
   964 ;; Tracked objects:
   965 ;;		On entry : 0/0
   966 ;;		On exit  : 0/0
   967 ;;		Unchanged: 0/0
   968 ;; Data sizes:     COMRAM   BANK0   BANK1   BANK2   BANK3   BANK4   BANK5   BANK6   BANK7
   969 ;;      Params:         4       0       0       0       0       0       0       0       0
   970 ;;      Locals:         0       4       0       0       0       0       0       0       0
   971 ;;      Temps:          0       0       0       0       0       0       0       0       0
   972 ;;      Totals:         4       4       0       0       0       0       0       0       0
   973 ;;Total ram usage:        8 bytes
   974 ;; Hardware stack levels used:    1
   975 ;; Hardware stack levels required when called:    2
   976 ;; This function calls:
   977 ;;		Nothing
   978 ;; This function is called by:
   979 ;;		_SetDutyCycle
   980 ;; This function uses a non-reentrant model
   981 ;;
   982                           
   983                           	psect	text7
   984  0008F8                     __ptext7:
   985                           	opt stack 0
   986  0008F8                     ___awdiv:
   987                           	opt stack 25
   988                           
   989                           ;incstack = 0
   990  0008F8  0E00               	movlw	0
   991  0008FA  0100               	movlb	0	; () banked
   992  0008FC  6FB1               	movwf	___awdiv@sign& (0+255),b
   993                           
   994                           ; BSR set to: 0
   995  0008FE  AE3D               	btfss	___awdiv@divisor+1,7,c
   996  000900  D007               	goto	l1369
   997                           
   998                           ; BSR set to: 0
   999  000902  6C3C               	negf	___awdiv@divisor,c
  1000  000904  1E3D               	comf	___awdiv@divisor+1,f,c
  1001  000906  B0D8               	btfsc	status,0,c
  1002  000908  2A3D               	incf	___awdiv@divisor+1,f,c
  1003                           
  1004                           ; BSR set to: 0
  1005  00090A  0E01               	movlw	1
  1006  00090C  0100               	movlb	0	; () banked
  1007  00090E  6FB1               	movwf	___awdiv@sign& (0+255),b
  1008  000910                     l1369:
  1009                           
  1010                           ; BSR set to: 0
  1011  000910  AE3B               	btfss	___awdiv@dividend+1,7,c
  1012  000912  D007               	goto	l1375
  1013                           
  1014                           ; BSR set to: 0
  1015  000914  6C3A               	negf	___awdiv@dividend,c
  1016  000916  1E3B               	comf	___awdiv@dividend+1,f,c
  1017  000918  B0D8               	btfsc	status,0,c
  1018  00091A  2A3B               	incf	___awdiv@dividend+1,f,c
  1019                           
  1020                           ; BSR set to: 0
  1021  00091C  0E01               	movlw	1
  1022  00091E  0100               	movlb	0	; () banked
  1023  000920  1BB1               	xorwf	___awdiv@sign& (0+255),f,b
  1024  000922                     l1375:
  1025                           
  1026                           ; BSR set to: 0
  1027  000922  0E00               	movlw	0
  1028  000924  0100               	movlb	0	; () banked
  1029  000926  6FB3               	movwf	(___awdiv@quotient+1)& (0+255),b
  1030  000928  0E00               	movlw	0
  1031  00092A  6FB2               	movwf	___awdiv@quotient& (0+255),b
  1032                           
  1033                           ; BSR set to: 0
  1034  00092C  503C               	movf	___awdiv@divisor,w,c
  1035  00092E  103D               	iorwf	___awdiv@divisor+1,w,c
  1036  000930  B4D8               	btfsc	status,2,c
  1037  000932  D021               	goto	l1397
  1038                           
  1039                           ; BSR set to: 0
  1040  000934  0E01               	movlw	1
  1041  000936  0100               	movlb	0	; () banked
  1042  000938  6FB0               	movwf	___awdiv@counter& (0+255),b
  1043  00093A  D005               	goto	l1383
  1044  00093C                     l1381:
  1045                           
  1046                           ; BSR set to: 0
  1047  00093C  90D8               	bcf	status,0,c
  1048  00093E  363C               	rlcf	___awdiv@divisor,f,c
  1049  000940  363D               	rlcf	___awdiv@divisor+1,f,c
  1050  000942  0100               	movlb	0	; () banked
  1051  000944  2BB0               	incf	___awdiv@counter& (0+255),f,b
  1052  000946                     l1383:
  1053                           
  1054                           ; BSR set to: 0
  1055  000946  AE3D               	btfss	___awdiv@divisor+1,7,c
  1056  000948  D7F9               	goto	l1381
  1057  00094A                     l1385:
  1058                           
  1059                           ; BSR set to: 0
  1060  00094A  0100               	movlb	0	; () banked
  1061  00094C  90D8               	bcf	status,0,c
  1062  00094E  37B2               	rlcf	___awdiv@quotient& (0+255),f,b
  1063  000950  37B3               	rlcf	(___awdiv@quotient+1)& (0+255),f,b
  1064                           
  1065                           ; BSR set to: 0
  1066  000952  503C               	movf	___awdiv@divisor,w,c
  1067  000954  5C3A               	subwf	___awdiv@dividend,w,c
  1068  000956  503D               	movf	___awdiv@divisor+1,w,c
  1069  000958  583B               	subwfb	___awdiv@dividend+1,w,c
  1070  00095A  A0D8               	btfss	status,0,c
  1071  00095C  D006               	goto	l1393
  1072                           
  1073                           ; BSR set to: 0
  1074  00095E  503C               	movf	___awdiv@divisor,w,c
  1075  000960  5E3A               	subwf	___awdiv@dividend,f,c
  1076  000962  503D               	movf	___awdiv@divisor+1,w,c
  1077  000964  5A3B               	subwfb	___awdiv@dividend+1,f,c
  1078                           
  1079                           ; BSR set to: 0
  1080  000966  0100               	movlb	0	; () banked
  1081  000968  81B2               	bsf	___awdiv@quotient& (0+255),0,b
  1082  00096A                     l1393:
  1083                           
  1084                           ; BSR set to: 0
  1085  00096A  90D8               	bcf	status,0,c
  1086  00096C  323D               	rrcf	___awdiv@divisor+1,f,c
  1087  00096E  323C               	rrcf	___awdiv@divisor,f,c
  1088                           
  1089                           ; BSR set to: 0
  1090  000970  0100               	movlb	0	; () banked
  1091  000972  2FB0               	decfsz	___awdiv@counter& (0+255),f,b
  1092  000974  D7EA               	goto	l1385
  1093  000976                     l1397:
  1094                           
  1095                           ; BSR set to: 0
  1096  000976  0100               	movlb	0	; () banked
  1097  000978  51B1               	movf	___awdiv@sign& (0+255),w,b
  1098  00097A  0100               	movlb	0	; () banked
  1099  00097C  B4D8               	btfsc	status,2,c
  1100  00097E  D005               	goto	l1401
  1101                           
  1102                           ; BSR set to: 0
  1103  000980  0100               	movlb	0	; () banked
  1104  000982  6DB2               	negf	___awdiv@quotient& (0+255),b
  1105  000984  1FB3               	comf	(___awdiv@quotient+1)& (0+255),f,b
  1106  000986  B0D8               	btfsc	status,0,c
  1107  000988  2BB3               	incf	(___awdiv@quotient+1)& (0+255),f,b
  1108  00098A                     l1401:
  1109                           
  1110                           ; BSR set to: 0
  1111  00098A  C0B2  F03A         	movff	___awdiv@quotient,?___awdiv
  1112  00098E  C0B3  F03B         	movff	___awdiv@quotient+1,?___awdiv+1
  1113  000992  0012               	return	
  1114  000994                     __end_of___awdiv:
  1115                           	opt stack 0
  1116                           tblptru	equ	0xFF8
  1117                           tblptrh	equ	0xFF7
  1118                           tblptrl	equ	0xFF6
  1119                           tablat	equ	0xFF5
  1120                           prodh	equ	0xFF4
  1121                           prodl	equ	0xFF3
  1122                           postinc0	equ	0xFEE
  1123                           wreg	equ	0xFE8
  1124                           postdec1	equ	0xFE5
  1125                           fsr1l	equ	0xFE1
  1126                           status	equ	0xFD8
  1127                           
  1128 ;; *************** function _TMR0_WRITE_LOW *****************
  1129 ;; Defined at:
  1130 ;;		line 79 in file "Timer_0.c"
  1131 ;; Parameters:    Size  Location     Type
  1132 ;;  valorLow        1    wreg     unsigned char 
  1133 ;; Auto vars:     Size  Location     Type
  1134 ;;  valorLow        1   16[COMRAM] unsigned char 
  1135 ;; Return value:  Size  Location     Type
  1136 ;;                  1    wreg      void 
  1137 ;; Registers used:
  1138 ;;		wreg
  1139 ;; Tracked objects:
  1140 ;;		On entry : 0/0
  1141 ;;		On exit  : 0/0
  1142 ;;		Unchanged: 0/0
  1143 ;; Data sizes:     COMRAM   BANK0   BANK1   BANK2   BANK3   BANK4   BANK5   BANK6   BANK7
  1144 ;;      Params:         0       0       0       0       0       0       0       0       0
  1145 ;;      Locals:         1       0       0       0       0       0       0       0       0
  1146 ;;      Temps:          0       0       0       0       0       0       0       0       0
  1147 ;;      Totals:         1       0       0       0       0       0       0       0       0
  1148 ;;Total ram usage:        1 bytes
  1149 ;; Hardware stack levels used:    1
  1150 ;; Hardware stack levels required when called:    2
  1151 ;; This function calls:
  1152 ;;		Nothing
  1153 ;; This function is called by:
  1154 ;;		_main
  1155 ;; This function uses a non-reentrant model
  1156 ;;
  1157                           
  1158                           	psect	text8
  1159  000C70                     __ptext8:
  1160                           	opt stack 0
  1161  000C70                     _TMR0_WRITE_LOW:
  1162                           	opt stack 28
  1163                           
  1164                           ; BSR set to: 0
  1165                           ;incstack = 0
  1166                           ;TMR0_WRITE_LOW@valorLow stored from wreg
  1167  000C70  6E34               	movwf	TMR0_WRITE_LOW@valorLow,c
  1168                           
  1169                           ;Timer_0.c: 81: TMR0L=valorLow;
  1170  000C72  C034  FFD6         	movff	TMR0_WRITE_LOW@valorLow,4054	;volatile
  1171  000C76  0012               	return		;funcret
  1172  000C78                     __end_of_TMR0_WRITE_LOW:
  1173                           	opt stack 0
  1174                           tblptru	equ	0xFF8
  1175                           tblptrh	equ	0xFF7
  1176                           tblptrl	equ	0xFF6
  1177                           tablat	equ	0xFF5
  1178                           prodh	equ	0xFF4
  1179                           prodl	equ	0xFF3
  1180                           postinc0	equ	0xFEE
  1181                           wreg	equ	0xFE8
  1182                           postdec1	equ	0xFE5
  1183                           fsr1l	equ	0xFE1
  1184                           status	equ	0xFD8
  1185                           
  1186 ;; *************** function _TMR0_WRITE_HIGH *****************
  1187 ;; Defined at:
  1188 ;;		line 66 in file "Timer_0.c"
  1189 ;; Parameters:    Size  Location     Type
  1190 ;;  valorHigh       1    wreg     unsigned char 
  1191 ;; Auto vars:     Size  Location     Type
  1192 ;;  valorHigh       1   16[COMRAM] unsigned char 
  1193 ;; Return value:  Size  Location     Type
  1194 ;;                  1    wreg      void 
  1195 ;; Registers used:
  1196 ;;		wreg
  1197 ;; Tracked objects:
  1198 ;;		On entry : 0/0
  1199 ;;		On exit  : 0/0
  1200 ;;		Unchanged: 0/0
  1201 ;; Data sizes:     COMRAM   BANK0   BANK1   BANK2   BANK3   BANK4   BANK5   BANK6   BANK7
  1202 ;;      Params:         0       0       0       0       0       0       0       0       0
  1203 ;;      Locals:         1       0       0       0       0       0       0       0       0
  1204 ;;      Temps:          0       0       0       0       0       0       0       0       0
  1205 ;;      Totals:         1       0       0       0       0       0       0       0       0
  1206 ;;Total ram usage:        1 bytes
  1207 ;; Hardware stack levels used:    1
  1208 ;; Hardware stack levels required when called:    2
  1209 ;; This function calls:
  1210 ;;		Nothing
  1211 ;; This function is called by:
  1212 ;;		_main
  1213 ;; This function uses a non-reentrant model
  1214 ;;
  1215                           
  1216                           	psect	text9
  1217  000C78                     __ptext9:
  1218                           	opt stack 0
  1219  000C78                     _TMR0_WRITE_HIGH:
  1220                           	opt stack 28
  1221                           
  1222                           ;incstack = 0
  1223                           ;TMR0_WRITE_HIGH@valorHigh stored from wreg
  1224  000C78  6E34               	movwf	TMR0_WRITE_HIGH@valorHigh,c
  1225                           
  1226                           ;Timer_0.c: 68: TMR0H=valorHigh;
  1227  000C7A  C034  FFD7         	movff	TMR0_WRITE_HIGH@valorHigh,4055	;volatile
  1228  000C7E  0012               	return		;funcret
  1229  000C80                     __end_of_TMR0_WRITE_HIGH:
  1230                           	opt stack 0
  1231                           tblptru	equ	0xFF8
  1232                           tblptrh	equ	0xFF7
  1233                           tblptrl	equ	0xFF6
  1234                           tablat	equ	0xFF5
  1235                           prodh	equ	0xFF4
  1236                           prodl	equ	0xFF3
  1237                           postinc0	equ	0xFEE
  1238                           wreg	equ	0xFE8
  1239                           postdec1	equ	0xFE5
  1240                           fsr1l	equ	0xFE1
  1241                           status	equ	0xFD8
  1242                           
  1243 ;; *************** function _TMR0_INIT *****************
  1244 ;; Defined at:
  1245 ;;		line 23 in file "Timer_0.c"
  1246 ;; Parameters:    Size  Location     Type
  1247 ;;		None
  1248 ;; Auto vars:     Size  Location     Type
  1249 ;;  T0PS            1   17[COMRAM] unsigned char 
  1250 ;;  bits            1   16[COMRAM] unsigned char 
  1251 ;; Return value:  Size  Location     Type
  1252 ;;                  1    wreg      void 
  1253 ;; Registers used:
  1254 ;;		wreg, status,2, status,0, prodl, prodh
  1255 ;; Tracked objects:
  1256 ;;		On entry : 0/0
  1257 ;;		On exit  : 0/0
  1258 ;;		Unchanged: 0/0
  1259 ;; Data sizes:     COMRAM   BANK0   BANK1   BANK2   BANK3   BANK4   BANK5   BANK6   BANK7
  1260 ;;      Params:         0       0       0       0       0       0       0       0       0
  1261 ;;      Locals:         2       0       0       0       0       0       0       0       0
  1262 ;;      Temps:          0       0       0       0       0       0       0       0       0
  1263 ;;      Totals:         2       0       0       0       0       0       0       0       0
  1264 ;;Total ram usage:        2 bytes
  1265 ;; Hardware stack levels used:    1
  1266 ;; Hardware stack levels required when called:    2
  1267 ;; This function calls:
  1268 ;;		Nothing
  1269 ;; This function is called by:
  1270 ;;		_main
  1271 ;; This function uses a non-reentrant model
  1272 ;;
  1273                           
  1274                           	psect	text10
  1275  000B80                     __ptext10:
  1276                           	opt stack 0
  1277  000B80                     _TMR0_INIT:
  1278                           	opt stack 28
  1279                           
  1280                           ;Timer_0.c: 33: else {T0PS=7;}
  1281                           
  1282                           ;Timer_0.c: 32: else if (256 == 128){T0PS=6;}
  1283                           
  1284                           ;Timer_0.c: 31: else if (256 == 64){T0PS=5;}
  1285                           
  1286                           ;Timer_0.c: 30: else if (256 == 32){T0PS=4;}
  1287                           
  1288                           ;Timer_0.c: 29: else if (256 == 16){T0PS=3;}
  1289                           
  1290                           ;Timer_0.c: 28: else if (256 == 8){T0PS=2;}
  1291                           
  1292                           ;Timer_0.c: 27: else if (256 == 4){T0PS=1;}
  1293                           
  1294                           ;Timer_0.c: 25: u8 T0PS;
  1295                           ;Timer_0.c: 26: if (256 == 2){T0PS=0;}
  1296                           
  1297                           ;incstack = 0
  1298  000B80  0E07               	movlw	7
  1299  000B82  6E35               	movwf	TMR0_INIT@T0PS,c
  1300                           
  1301                           ;Timer_0.c: 37: else {bits=0;}
  1302                           
  1303                           ;Timer_0.c: 35: u8 bits;
  1304                           ;Timer_0.c: 36: if (16==8){bits=1;}
  1305  000B84  0E00               	movlw	0
  1306  000B86  6E34               	movwf	TMR0_INIT@bits,c
  1307                           
  1308                           ;Timer_0.c: 39: T0CON=(1*128)+(bits*64)+(0*32)+(0*16)+(0*8)+T0PS;
  1309  000B88  5034               	movf	TMR0_INIT@bits,w,c
  1310  000B8A  0D40               	mullw	64
  1311  000B8C  50F3               	movf	prodl,w,c
  1312  000B8E  2435               	addwf	TMR0_INIT@T0PS,w,c
  1313  000B90  0F80               	addlw	128
  1314  000B92  6ED5               	movwf	4053,c	;volatile
  1315                           
  1316                           ;Timer_0.c: 41: TMR0=0x15;
  1317  000B94  0E00               	movlw	0
  1318  000B96  6ED7               	movwf	4055,c	;volatile
  1319  000B98  0E15               	movlw	21
  1320  000B9A  6ED6               	movwf	4054,c	;volatile
  1321                           
  1322                           ;Timer_0.c: 42: T0IF=0;
  1323  000B9C  94F2               	bcf	intcon,2,c	;volatile
  1324  000B9E  0012               	return		;funcret
  1325  000BA0                     __end_of_TMR0_INIT:
  1326                           	opt stack 0
  1327                           tblptru	equ	0xFF8
  1328                           tblptrh	equ	0xFF7
  1329                           tblptrl	equ	0xFF6
  1330                           tablat	equ	0xFF5
  1331                           prodh	equ	0xFF4
  1332                           prodl	equ	0xFF3
  1333                           intcon	equ	0xFF2
  1334                           postinc0	equ	0xFEE
  1335                           wreg	equ	0xFE8
  1336                           postdec1	equ	0xFE5
  1337                           fsr1l	equ	0xFE1
  1338                           status	equ	0xFD8
  1339                           
  1340 ;; *************** function _Interrupt_Init *****************
  1341 ;; Defined at:
  1342 ;;		line 94 in file "Interrupts.c"
  1343 ;; Parameters:    Size  Location     Type
  1344 ;;		None
  1345 ;; Auto vars:     Size  Location     Type
  1346 ;;		None
  1347 ;; Return value:  Size  Location     Type
  1348 ;;                  1    wreg      void 
  1349 ;; Registers used:
  1350 ;;		cstack
  1351 ;; Tracked objects:
  1352 ;;		On entry : 0/0
  1353 ;;		On exit  : 0/0
  1354 ;;		Unchanged: 0/0
  1355 ;; Data sizes:     COMRAM   BANK0   BANK1   BANK2   BANK3   BANK4   BANK5   BANK6   BANK7
  1356 ;;      Params:         0       0       0       0       0       0       0       0       0
  1357 ;;      Locals:         0       0       0       0       0       0       0       0       0
  1358 ;;      Temps:          0       0       0       0       0       0       0       0       0
  1359 ;;      Totals:         0       0       0       0       0       0       0       0       0
  1360 ;;Total ram usage:        0 bytes
  1361 ;; Hardware stack levels used:    1
  1362 ;; Hardware stack levels required when called:    3
  1363 ;; This function calls:
  1364 ;;		_INIT_INTCON
  1365 ;;		_INIT_INTCON2
  1366 ;;		_INIT_INTCON3
  1367 ;;		_INIT_IPR1
  1368 ;;		_INIT_IPR2
  1369 ;;		_INIT_PIE1
  1370 ;;		_INIT_PIE2
  1371 ;;		_INIT_RCON
  1372 ;; This function is called by:
  1373 ;;		_main
  1374 ;; This function uses a non-reentrant model
  1375 ;;
  1376                           
  1377                           	psect	text11
  1378  000B5E                     __ptext11:
  1379                           	opt stack 0
  1380  000B5E                     _Interrupt_Init:
  1381                           	opt stack 27
  1382                           
  1383                           ;Interrupts.c: 95: INIT_RCON();
  1384                           
  1385                           ;incstack = 0
  1386  000B5E  EC4B  F006         	call	_INIT_RCON	;wreg free
  1387                           
  1388                           ;Interrupts.c: 96: INIT_INTCON();
  1389  000B62  EC1E  F006         	call	_INIT_INTCON	;wreg free
  1390                           
  1391                           ;Interrupts.c: 97: INIT_INTCON2();
  1392  000B66  EC11  F006         	call	_INIT_INTCON2	;wreg free
  1393                           
  1394                           ;Interrupts.c: 98: INIT_INTCON3();
  1395  000B6A  EC2A  F006         	call	_INIT_INTCON3	;wreg free
  1396                           
  1397                           ;Interrupts.c: 99: INIT_PIE1();
  1398  000B6E  ECF3  F005         	call	_INIT_PIE1	;wreg free
  1399                           
  1400                           ;Interrupts.c: 100: INIT_PIE2();
  1401  000B72  EC03  F006         	call	_INIT_PIE2	;wreg free
  1402                           
  1403                           ;Interrupts.c: 101: INIT_IPR1();
  1404  000B76  ECFB  F005         	call	_INIT_IPR1	;wreg free
  1405                           
  1406                           ;Interrupts.c: 102: INIT_IPR2();
  1407  000B7A  EC0A  F006         	call	_INIT_IPR2	;wreg free
  1408  000B7E  0012               	return		;funcret
  1409  000B80                     __end_of_Interrupt_Init:
  1410                           	opt stack 0
  1411                           tblptru	equ	0xFF8
  1412                           tblptrh	equ	0xFF7
  1413                           tblptrl	equ	0xFF6
  1414                           tablat	equ	0xFF5
  1415                           prodh	equ	0xFF4
  1416                           prodl	equ	0xFF3
  1417                           intcon	equ	0xFF2
  1418                           postinc0	equ	0xFEE
  1419                           wreg	equ	0xFE8
  1420                           postdec1	equ	0xFE5
  1421                           fsr1l	equ	0xFE1
  1422                           status	equ	0xFD8
  1423                           
  1424 ;; *************** function _INIT_RCON *****************
  1425 ;; Defined at:
  1426 ;;		line 47 in file "Interrupts.c"
  1427 ;; Parameters:    Size  Location     Type
  1428 ;;		None
  1429 ;; Auto vars:     Size  Location     Type
  1430 ;;		None
  1431 ;; Return value:  Size  Location     Type
  1432 ;;                  1    wreg      void 
  1433 ;; Registers used:
  1434 ;;		None
  1435 ;; Tracked objects:
  1436 ;;		On entry : 0/0
  1437 ;;		On exit  : 0/0
  1438 ;;		Unchanged: 0/0
  1439 ;; Data sizes:     COMRAM   BANK0   BANK1   BANK2   BANK3   BANK4   BANK5   BANK6   BANK7
  1440 ;;      Params:         0       0       0       0       0       0       0       0       0
  1441 ;;      Locals:         0       0       0       0       0       0       0       0       0
  1442 ;;      Temps:          0       0       0       0       0       0       0       0       0
  1443 ;;      Totals:         0       0       0       0       0       0       0       0       0
  1444 ;;Total ram usage:        0 bytes
  1445 ;; Hardware stack levels used:    1
  1446 ;; Hardware stack levels required when called:    2
  1447 ;; This function calls:
  1448 ;;		Nothing
  1449 ;; This function is called by:
  1450 ;;		_Interrupt_Init
  1451 ;; This function uses a non-reentrant model
  1452 ;;
  1453                           
  1454                           	psect	text12
  1455  000C96                     __ptext12:
  1456                           	opt stack 0
  1457  000C96                     _INIT_RCON:
  1458                           	opt stack 27
  1459                           
  1460                           ;Interrupts.c: 49: RCONbits.IPEN = 1U;
  1461                           
  1462                           ;incstack = 0
  1463  000C96  8ED0               	bsf	4048,7,c	;volatile
  1464  000C98  0012               	return		;funcret
  1465  000C9A                     __end_of_INIT_RCON:
  1466                           	opt stack 0
  1467                           tblptru	equ	0xFF8
  1468                           tblptrh	equ	0xFF7
  1469                           tblptrl	equ	0xFF6
  1470                           tablat	equ	0xFF5
  1471                           prodh	equ	0xFF4
  1472                           prodl	equ	0xFF3
  1473                           intcon	equ	0xFF2
  1474                           postinc0	equ	0xFEE
  1475                           wreg	equ	0xFE8
  1476                           postdec1	equ	0xFE5
  1477                           fsr1l	equ	0xFE1
  1478                           status	equ	0xFD8
  1479                           
  1480 ;; *************** function _INIT_PIE2 *****************
  1481 ;; Defined at:
  1482 ;;		line 63 in file "Interrupts.c"
  1483 ;; Parameters:    Size  Location     Type
  1484 ;;		None
  1485 ;; Auto vars:     Size  Location     Type
  1486 ;;		None
  1487 ;; Return value:  Size  Location     Type
  1488 ;;                  1    wreg      void 
  1489 ;; Registers used:
  1490 ;;		None
  1491 ;; Tracked objects:
  1492 ;;		On entry : 0/0
  1493 ;;		On exit  : 0/0
  1494 ;;		Unchanged: 0/0
  1495 ;; Data sizes:     COMRAM   BANK0   BANK1   BANK2   BANK3   BANK4   BANK5   BANK6   BANK7
  1496 ;;      Params:         0       0       0       0       0       0       0       0       0
  1497 ;;      Locals:         0       0       0       0       0       0       0       0       0
  1498 ;;      Temps:          0       0       0       0       0       0       0       0       0
  1499 ;;      Totals:         0       0       0       0       0       0       0       0       0
  1500 ;;Total ram usage:        0 bytes
  1501 ;; Hardware stack levels used:    1
  1502 ;; Hardware stack levels required when called:    2
  1503 ;; This function calls:
  1504 ;;		Nothing
  1505 ;; This function is called by:
  1506 ;;		_Interrupt_Init
  1507 ;; This function uses a non-reentrant model
  1508 ;;
  1509                           
  1510                           	psect	text13
  1511  000C06                     __ptext13:
  1512                           	opt stack 0
  1513  000C06                     _INIT_PIE2:
  1514                           	opt stack 27
  1515                           
  1516                           ;Interrupts.c: 65: PIE2bits.OSCFIE=0U;
  1517                           
  1518                           ;incstack = 0
  1519  000C06  9EA0               	bcf	4000,7,c	;volatile
  1520                           
  1521                           ;Interrupts.c: 66: PIE2bits.CMIE=0U;
  1522  000C08  9CA0               	bcf	4000,6,c	;volatile
  1523                           
  1524                           ;Interrupts.c: 67: PIE2bits.EEIE=0U;
  1525  000C0A  98A0               	bcf	4000,4,c	;volatile
  1526                           
  1527                           ;Interrupts.c: 68: PIE2bits.HLVDIE=0U;
  1528  000C0C  94A0               	bcf	4000,2,c	;volatile
  1529                           
  1530                           ;Interrupts.c: 69: PIE2bits.BCLIE=0U;
  1531  000C0E  96A0               	bcf	4000,3,c	;volatile
  1532                           
  1533                           ;Interrupts.c: 70: PIE2bits.TMR3IE=0U;
  1534  000C10  92A0               	bcf	4000,1,c	;volatile
  1535  000C12  0012               	return		;funcret
  1536  000C14                     __end_of_INIT_PIE2:
  1537                           	opt stack 0
  1538                           tblptru	equ	0xFF8
  1539                           tblptrh	equ	0xFF7
  1540                           tblptrl	equ	0xFF6
  1541                           tablat	equ	0xFF5
  1542                           prodh	equ	0xFF4
  1543                           prodl	equ	0xFF3
  1544                           intcon	equ	0xFF2
  1545                           postinc0	equ	0xFEE
  1546                           wreg	equ	0xFE8
  1547                           postdec1	equ	0xFE5
  1548                           fsr1l	equ	0xFE1
  1549                           status	equ	0xFD8
  1550                           
  1551 ;; *************** function _INIT_PIE1 *****************
  1552 ;; Defined at:
  1553 ;;		line 52 in file "Interrupts.c"
  1554 ;; Parameters:    Size  Location     Type
  1555 ;;		None
  1556 ;; Auto vars:     Size  Location     Type
  1557 ;;		None
  1558 ;; Return value:  Size  Location     Type
  1559 ;;                  1    wreg      void 
  1560 ;; Registers used:
  1561 ;;		None
  1562 ;; Tracked objects:
  1563 ;;		On entry : 0/0
  1564 ;;		On exit  : 0/0
  1565 ;;		Unchanged: 0/0
  1566 ;; Data sizes:     COMRAM   BANK0   BANK1   BANK2   BANK3   BANK4   BANK5   BANK6   BANK7
  1567 ;;      Params:         0       0       0       0       0       0       0       0       0
  1568 ;;      Locals:         0       0       0       0       0       0       0       0       0
  1569 ;;      Temps:          0       0       0       0       0       0       0       0       0
  1570 ;;      Totals:         0       0       0       0       0       0       0       0       0
  1571 ;;Total ram usage:        0 bytes
  1572 ;; Hardware stack levels used:    1
  1573 ;; Hardware stack levels required when called:    2
  1574 ;; This function calls:
  1575 ;;		Nothing
  1576 ;; This function is called by:
  1577 ;;		_Interrupt_Init
  1578 ;; This function uses a non-reentrant model
  1579 ;;
  1580                           
  1581                           	psect	text14
  1582  000BE6                     __ptext14:
  1583                           	opt stack 0
  1584  000BE6                     _INIT_PIE1:
  1585                           	opt stack 27
  1586                           
  1587                           ;Interrupts.c: 54: PIE1bits.ADIE = 1U;
  1588                           
  1589                           ;incstack = 0
  1590  000BE6  8C9D               	bsf	3997,6,c	;volatile
  1591                           
  1592                           ;Interrupts.c: 55: PIE1bits.RCIE = 0U;
  1593  000BE8  9A9D               	bcf	3997,5,c	;volatile
  1594                           
  1595                           ;Interrupts.c: 56: PIE1bits.TXIE = 0U;
  1596  000BEA  989D               	bcf	3997,4,c	;volatile
  1597                           
  1598                           ;Interrupts.c: 57: PIE1bits.SSPIE = 0U;
  1599  000BEC  969D               	bcf	3997,3,c	;volatile
  1600                           
  1601                           ;Interrupts.c: 58: PIE1bits.CCP1IE = 0U;
  1602  000BEE  949D               	bcf	3997,2,c	;volatile
  1603                           
  1604                           ;Interrupts.c: 59: PIE1bits.TMR2IE = 0U;
  1605  000BF0  929D               	bcf	3997,1,c	;volatile
  1606                           
  1607                           ;Interrupts.c: 60: PIE1bits.TMR1IE = 0U;
  1608  000BF2  909D               	bcf	3997,0,c	;volatile
  1609  000BF4  0012               	return		;funcret
  1610  000BF6                     __end_of_INIT_PIE1:
  1611                           	opt stack 0
  1612                           tblptru	equ	0xFF8
  1613                           tblptrh	equ	0xFF7
  1614                           tblptrl	equ	0xFF6
  1615                           tablat	equ	0xFF5
  1616                           prodh	equ	0xFF4
  1617                           prodl	equ	0xFF3
  1618                           intcon	equ	0xFF2
  1619                           postinc0	equ	0xFEE
  1620                           wreg	equ	0xFE8
  1621                           postdec1	equ	0xFE5
  1622                           fsr1l	equ	0xFE1
  1623                           status	equ	0xFD8
  1624                           
  1625 ;; *************** function _INIT_IPR2 *****************
  1626 ;; Defined at:
  1627 ;;		line 84 in file "Interrupts.c"
  1628 ;; Parameters:    Size  Location     Type
  1629 ;;		None
  1630 ;; Auto vars:     Size  Location     Type
  1631 ;;		None
  1632 ;; Return value:  Size  Location     Type
  1633 ;;                  1    wreg      void 
  1634 ;; Registers used:
  1635 ;;		None
  1636 ;; Tracked objects:
  1637 ;;		On entry : 0/0
  1638 ;;		On exit  : 0/0
  1639 ;;		Unchanged: 0/0
  1640 ;; Data sizes:     COMRAM   BANK0   BANK1   BANK2   BANK3   BANK4   BANK5   BANK6   BANK7
  1641 ;;      Params:         0       0       0       0       0       0       0       0       0
  1642 ;;      Locals:         0       0       0       0       0       0       0       0       0
  1643 ;;      Temps:          0       0       0       0       0       0       0       0       0
  1644 ;;      Totals:         0       0       0       0       0       0       0       0       0
  1645 ;;Total ram usage:        0 bytes
  1646 ;; Hardware stack levels used:    1
  1647 ;; Hardware stack levels required when called:    2
  1648 ;; This function calls:
  1649 ;;		Nothing
  1650 ;; This function is called by:
  1651 ;;		_Interrupt_Init
  1652 ;; This function uses a non-reentrant model
  1653 ;;
  1654                           
  1655                           	psect	text15
  1656  000C14                     __ptext15:
  1657                           	opt stack 0
  1658  000C14                     _INIT_IPR2:
  1659                           	opt stack 27
  1660                           
  1661                           ;Interrupts.c: 85: IPR2bits.OSCFIP=0U;
  1662                           
  1663                           ;incstack = 0
  1664  000C14  9EA2               	bcf	4002,7,c	;volatile
  1665                           
  1666                           ;Interrupts.c: 86: IPR2bits.CMIP=0U;
  1667  000C16  9CA2               	bcf	4002,6,c	;volatile
  1668                           
  1669                           ;Interrupts.c: 87: IPR2bits.EEIP=0U;
  1670  000C18  98A2               	bcf	4002,4,c	;volatile
  1671                           
  1672                           ;Interrupts.c: 88: IPR2bits.HLVDIP=0U;
  1673  000C1A  94A2               	bcf	4002,2,c	;volatile
  1674                           
  1675                           ;Interrupts.c: 89: IPR2bits.BCLIP=0U;
  1676  000C1C  96A2               	bcf	4002,3,c	;volatile
  1677                           
  1678                           ;Interrupts.c: 90: IPR2bits.TMR3IP=0U;
  1679  000C1E  92A2               	bcf	4002,1,c	;volatile
  1680  000C20  0012               	return		;funcret
  1681  000C22                     __end_of_INIT_IPR2:
  1682                           	opt stack 0
  1683                           tblptru	equ	0xFF8
  1684                           tblptrh	equ	0xFF7
  1685                           tblptrl	equ	0xFF6
  1686                           tablat	equ	0xFF5
  1687                           prodh	equ	0xFF4
  1688                           prodl	equ	0xFF3
  1689                           intcon	equ	0xFF2
  1690                           postinc0	equ	0xFEE
  1691                           wreg	equ	0xFE8
  1692                           postdec1	equ	0xFE5
  1693                           fsr1l	equ	0xFE1
  1694                           status	equ	0xFD8
  1695                           
  1696 ;; *************** function _INIT_IPR1 *****************
  1697 ;; Defined at:
  1698 ;;		line 74 in file "Interrupts.c"
  1699 ;; Parameters:    Size  Location     Type
  1700 ;;		None
  1701 ;; Auto vars:     Size  Location     Type
  1702 ;;		None
  1703 ;; Return value:  Size  Location     Type
  1704 ;;                  1    wreg      void 
  1705 ;; Registers used:
  1706 ;;		None
  1707 ;; Tracked objects:
  1708 ;;		On entry : 0/0
  1709 ;;		On exit  : 0/0
  1710 ;;		Unchanged: 0/0
  1711 ;; Data sizes:     COMRAM   BANK0   BANK1   BANK2   BANK3   BANK4   BANK5   BANK6   BANK7
  1712 ;;      Params:         0       0       0       0       0       0       0       0       0
  1713 ;;      Locals:         0       0       0       0       0       0       0       0       0
  1714 ;;      Temps:          0       0       0       0       0       0       0       0       0
  1715 ;;      Totals:         0       0       0       0       0       0       0       0       0
  1716 ;;Total ram usage:        0 bytes
  1717 ;; Hardware stack levels used:    1
  1718 ;; Hardware stack levels required when called:    2
  1719 ;; This function calls:
  1720 ;;		Nothing
  1721 ;; This function is called by:
  1722 ;;		_Interrupt_Init
  1723 ;; This function uses a non-reentrant model
  1724 ;;
  1725                           
  1726                           	psect	text16
  1727  000BF6                     __ptext16:
  1728                           	opt stack 0
  1729  000BF6                     _INIT_IPR1:
  1730                           	opt stack 27
  1731                           
  1732                           ;Interrupts.c: 75: IPR1bits.ADIP=1U;
  1733                           
  1734                           ;incstack = 0
  1735  000BF6  8C9F               	bsf	3999,6,c	;volatile
  1736                           
  1737                           ;Interrupts.c: 76: IPR1bits.RCIP=0U;
  1738  000BF8  9A9F               	bcf	3999,5,c	;volatile
  1739                           
  1740                           ;Interrupts.c: 77: IPR1bits.TXIP=0U;
  1741  000BFA  989F               	bcf	3999,4,c	;volatile
  1742                           
  1743                           ;Interrupts.c: 78: IPR1bits.SSPIP=0U;
  1744  000BFC  969F               	bcf	3999,3,c	;volatile
  1745                           
  1746                           ;Interrupts.c: 79: IPR1bits.CCP1IP=1U;
  1747  000BFE  849F               	bsf	3999,2,c	;volatile
  1748                           
  1749                           ;Interrupts.c: 80: IPR1bits.TMR2IP=0U;
  1750  000C00  929F               	bcf	3999,1,c	;volatile
  1751                           
  1752                           ;Interrupts.c: 81: IPR1bits.TMR1IP=0U;
  1753  000C02  909F               	bcf	3999,0,c	;volatile
  1754  000C04  0012               	return		;funcret
  1755  000C06                     __end_of_INIT_IPR1:
  1756                           	opt stack 0
  1757                           tblptru	equ	0xFF8
  1758                           tblptrh	equ	0xFF7
  1759                           tblptrl	equ	0xFF6
  1760                           tablat	equ	0xFF5
  1761                           prodh	equ	0xFF4
  1762                           prodl	equ	0xFF3
  1763                           intcon	equ	0xFF2
  1764                           postinc0	equ	0xFEE
  1765                           wreg	equ	0xFE8
  1766                           postdec1	equ	0xFE5
  1767                           fsr1l	equ	0xFE1
  1768                           status	equ	0xFD8
  1769                           
  1770 ;; *************** function _INIT_INTCON3 *****************
  1771 ;; Defined at:
  1772 ;;		line 39 in file "Interrupts.c"
  1773 ;; Parameters:    Size  Location     Type
  1774 ;;		None
  1775 ;; Auto vars:     Size  Location     Type
  1776 ;;		None
  1777 ;; Return value:  Size  Location     Type
  1778 ;;                  1    wreg      void 
  1779 ;; Registers used:
  1780 ;;		None
  1781 ;; Tracked objects:
  1782 ;;		On entry : 0/0
  1783 ;;		On exit  : 0/0
  1784 ;;		Unchanged: 0/0
  1785 ;; Data sizes:     COMRAM   BANK0   BANK1   BANK2   BANK3   BANK4   BANK5   BANK6   BANK7
  1786 ;;      Params:         0       0       0       0       0       0       0       0       0
  1787 ;;      Locals:         0       0       0       0       0       0       0       0       0
  1788 ;;      Temps:          0       0       0       0       0       0       0       0       0
  1789 ;;      Totals:         0       0       0       0       0       0       0       0       0
  1790 ;;Total ram usage:        0 bytes
  1791 ;; Hardware stack levels used:    1
  1792 ;; Hardware stack levels required when called:    2
  1793 ;; This function calls:
  1794 ;;		Nothing
  1795 ;; This function is called by:
  1796 ;;		_Interrupt_Init
  1797 ;; This function uses a non-reentrant model
  1798 ;;
  1799                           
  1800                           	psect	text17
  1801  000C54                     __ptext17:
  1802                           	opt stack 0
  1803  000C54                     _INIT_INTCON3:
  1804                           	opt stack 27
  1805                           
  1806                           ;Interrupts.c: 40: INTCON3bits.INT2IP=1U;
  1807                           
  1808                           ;incstack = 0
  1809  000C54  8EF0               	bsf	intcon3,7,c	;volatile
  1810                           
  1811                           ;Interrupts.c: 41: INTCON3bits.INT1IP=0U;
  1812  000C56  9CF0               	bcf	intcon3,6,c	;volatile
  1813                           
  1814                           ;Interrupts.c: 43: INTCON3bits.INT2IE=1U;
  1815  000C58  88F0               	bsf	intcon3,4,c	;volatile
  1816                           
  1817                           ;Interrupts.c: 44: INTCON3bits.INT1IE=0U;
  1818  000C5A  96F0               	bcf	intcon3,3,c	;volatile
  1819  000C5C  0012               	return		;funcret
  1820  000C5E                     __end_of_INIT_INTCON3:
  1821                           	opt stack 0
  1822                           tblptru	equ	0xFF8
  1823                           tblptrh	equ	0xFF7
  1824                           tblptrl	equ	0xFF6
  1825                           tablat	equ	0xFF5
  1826                           prodh	equ	0xFF4
  1827                           prodl	equ	0xFF3
  1828                           intcon	equ	0xFF2
  1829                           intcon3	equ	0xFF0
  1830                           postinc0	equ	0xFEE
  1831                           wreg	equ	0xFE8
  1832                           postdec1	equ	0xFE5
  1833                           fsr1l	equ	0xFE1
  1834                           status	equ	0xFD8
  1835                           
  1836 ;; *************** function _INIT_INTCON2 *****************
  1837 ;; Defined at:
  1838 ;;		line 28 in file "Interrupts.c"
  1839 ;; Parameters:    Size  Location     Type
  1840 ;;		None
  1841 ;; Auto vars:     Size  Location     Type
  1842 ;;		None
  1843 ;; Return value:  Size  Location     Type
  1844 ;;                  1    wreg      void 
  1845 ;; Registers used:
  1846 ;;		None
  1847 ;; Tracked objects:
  1848 ;;		On entry : 0/0
  1849 ;;		On exit  : 0/0
  1850 ;;		Unchanged: 0/0
  1851 ;; Data sizes:     COMRAM   BANK0   BANK1   BANK2   BANK3   BANK4   BANK5   BANK6   BANK7
  1852 ;;      Params:         0       0       0       0       0       0       0       0       0
  1853 ;;      Locals:         0       0       0       0       0       0       0       0       0
  1854 ;;      Temps:          0       0       0       0       0       0       0       0       0
  1855 ;;      Totals:         0       0       0       0       0       0       0       0       0
  1856 ;;Total ram usage:        0 bytes
  1857 ;; Hardware stack levels used:    1
  1858 ;; Hardware stack levels required when called:    2
  1859 ;; This function calls:
  1860 ;;		Nothing
  1861 ;; This function is called by:
  1862 ;;		_Interrupt_Init
  1863 ;; This function uses a non-reentrant model
  1864 ;;
  1865                           
  1866                           	psect	text18
  1867  000C22                     __ptext18:
  1868                           	opt stack 0
  1869  000C22                     _INIT_INTCON2:
  1870                           	opt stack 27
  1871                           
  1872                           ;Interrupts.c: 29: INTCON2bits.nRBPU=0U;
  1873                           
  1874                           ;incstack = 0
  1875  000C22  9EF1               	bcf	intcon2,7,c	;volatile
  1876                           
  1877                           ;Interrupts.c: 30: INTCON2bits.INTEDG0=0U;
  1878  000C24  9CF1               	bcf	intcon2,6,c	;volatile
  1879                           
  1880                           ;Interrupts.c: 31: INTCON2bits.INTEDG1=0U;
  1881  000C26  9AF1               	bcf	intcon2,5,c	;volatile
  1882                           
  1883                           ;Interrupts.c: 32: INTCON2bits.INTEDG2=1U;
  1884  000C28  88F1               	bsf	intcon2,4,c	;volatile
  1885                           
  1886                           ;Interrupts.c: 34: INTCON2bits.T0IP=1U;
  1887  000C2A  84F1               	bsf	intcon2,2,c	;volatile
  1888                           
  1889                           ;Interrupts.c: 36: INTCON2bits.RBIP=0U;
  1890  000C2C  90F1               	bcf	intcon2,0,c	;volatile
  1891  000C2E  0012               	return		;funcret
  1892  000C30                     __end_of_INIT_INTCON2:
  1893                           	opt stack 0
  1894                           tblptru	equ	0xFF8
  1895                           tblptrh	equ	0xFF7
  1896                           tblptrl	equ	0xFF6
  1897                           tablat	equ	0xFF5
  1898                           prodh	equ	0xFF4
  1899                           prodl	equ	0xFF3
  1900                           intcon	equ	0xFF2
  1901                           intcon2	equ	0xFF1
  1902                           intcon3	equ	0xFF0
  1903                           postinc0	equ	0xFEE
  1904                           wreg	equ	0xFE8
  1905                           postdec1	equ	0xFE5
  1906                           fsr1l	equ	0xFE1
  1907                           status	equ	0xFD8
  1908                           
  1909 ;; *************** function _INIT_INTCON *****************
  1910 ;; Defined at:
  1911 ;;		line 11 in file "Interrupts.c"
  1912 ;; Parameters:    Size  Location     Type
  1913 ;;		None
  1914 ;; Auto vars:     Size  Location     Type
  1915 ;;		None
  1916 ;; Return value:  Size  Location     Type
  1917 ;;                  1    wreg      void 
  1918 ;; Registers used:
  1919 ;;		None
  1920 ;; Tracked objects:
  1921 ;;		On entry : 0/0
  1922 ;;		On exit  : 0/0
  1923 ;;		Unchanged: 0/0
  1924 ;; Data sizes:     COMRAM   BANK0   BANK1   BANK2   BANK3   BANK4   BANK5   BANK6   BANK7
  1925 ;;      Params:         0       0       0       0       0       0       0       0       0
  1926 ;;      Locals:         0       0       0       0       0       0       0       0       0
  1927 ;;      Temps:          0       0       0       0       0       0       0       0       0
  1928 ;;      Totals:         0       0       0       0       0       0       0       0       0
  1929 ;;Total ram usage:        0 bytes
  1930 ;; Hardware stack levels used:    1
  1931 ;; Hardware stack levels required when called:    2
  1932 ;; This function calls:
  1933 ;;		Nothing
  1934 ;; This function is called by:
  1935 ;;		_Interrupt_Init
  1936 ;; This function uses a non-reentrant model
  1937 ;;
  1938                           
  1939                           	psect	text19
  1940  000C3C                     __ptext19:
  1941                           	opt stack 0
  1942  000C3C                     _INIT_INTCON:
  1943                           	opt stack 27
  1944                           
  1945                           ;Interrupts.c: 13: INTCONbits.GIE = 1U;
  1946                           
  1947                           ;incstack = 0
  1948  000C3C  8EF2               	bsf	intcon,7,c	;volatile
  1949                           
  1950                           ;Interrupts.c: 14: INTCONbits.PEIE = 0U;
  1951  000C3E  9CF2               	bcf	intcon,6,c	;volatile
  1952                           
  1953                           ;Interrupts.c: 15: INTCONbits.TMR0IE = 1U;
  1954  000C40  8AF2               	bsf	intcon,5,c	;volatile
  1955                           
  1956                           ;Interrupts.c: 16: INTCONbits.INT0E=0U;
  1957  000C42  98F2               	bcf	intcon,4,c	;volatile
  1958                           
  1959                           ;Interrupts.c: 17: INTCONbits.RBIE=0U;
  1960  000C44  96F2               	bcf	intcon,3,c	;volatile
  1961  000C46  0012               	return		;funcret
  1962  000C48                     __end_of_INIT_INTCON:
  1963                           	opt stack 0
  1964                           tblptru	equ	0xFF8
  1965                           tblptrh	equ	0xFF7
  1966                           tblptrl	equ	0xFF6
  1967                           tablat	equ	0xFF5
  1968                           prodh	equ	0xFF4
  1969                           prodl	equ	0xFF3
  1970                           intcon	equ	0xFF2
  1971                           intcon2	equ	0xFF1
  1972                           intcon3	equ	0xFF0
  1973                           postinc0	equ	0xFEE
  1974                           wreg	equ	0xFE8
  1975                           postdec1	equ	0xFE5
  1976                           fsr1l	equ	0xFE1
  1977                           status	equ	0xFD8
  1978                           
  1979 ;; *************** function _InitDHT11Driver *****************
  1980 ;; Defined at:
  1981 ;;		line 104 in file "DHT11Driver.c"
  1982 ;; Parameters:    Size  Location     Type
  1983 ;;		None
  1984 ;; Auto vars:     Size  Location     Type
  1985 ;;		None
  1986 ;; Return value:  Size  Location     Type
  1987 ;;                  1    wreg      void 
  1988 ;; Registers used:
  1989 ;;		wreg, status,2, status,0, cstack
  1990 ;; Tracked objects:
  1991 ;;		On entry : 0/0
  1992 ;;		On exit  : 0/0
  1993 ;;		Unchanged: 0/0
  1994 ;; Data sizes:     COMRAM   BANK0   BANK1   BANK2   BANK3   BANK4   BANK5   BANK6   BANK7
  1995 ;;      Params:         0       0       0       0       0       0       0       0       0
  1996 ;;      Locals:         0       0       0       0       0       0       0       0       0
  1997 ;;      Temps:          0       0       0       0       0       0       0       0       0
  1998 ;;      Totals:         0       0       0       0       0       0       0       0       0
  1999 ;;Total ram usage:        0 bytes
  2000 ;; Hardware stack levels used:    1
  2001 ;; Hardware stack levels required when called:    3
  2002 ;; This function calls:
  2003 ;;		_ConfigureTimer1
  2004 ;; This function is called by:
  2005 ;;		_main
  2006 ;; This function uses a non-reentrant model
  2007 ;;
  2008                           
  2009                           	psect	text20
  2010  000C5E                     __ptext20:
  2011                           	opt stack 0
  2012  000C5E                     _InitDHT11Driver:
  2013                           	opt stack 27
  2014                           
  2015                           ;DHT11Driver.c: 105: (TRISCbits.TRISC2 = 0);
  2016                           
  2017                           ;incstack = 0
  2018  000C5E  9494               	bcf	3988,2,c	;volatile
  2019                           
  2020                           ;DHT11Driver.c: 106: (LATC2=1U);
  2021  000C60  848B               	bsf	3979,2,c	;volatile
  2022                           
  2023                           ;DHT11Driver.c: 107: ConfigureTimer1();
  2024  000C62  EC4C  F005         	call	_ConfigureTimer1	;wreg free
  2025  000C66  0012               	return		;funcret
  2026  000C68                     __end_of_InitDHT11Driver:
  2027                           	opt stack 0
  2028                           tblptru	equ	0xFF8
  2029                           tblptrh	equ	0xFF7
  2030                           tblptrl	equ	0xFF6
  2031                           tablat	equ	0xFF5
  2032                           prodh	equ	0xFF4
  2033                           prodl	equ	0xFF3
  2034                           intcon	equ	0xFF2
  2035                           intcon2	equ	0xFF1
  2036                           intcon3	equ	0xFF0
  2037                           postinc0	equ	0xFEE
  2038                           wreg	equ	0xFE8
  2039                           postdec1	equ	0xFE5
  2040                           fsr1l	equ	0xFE1
  2041                           status	equ	0xFD8
  2042                           
  2043 ;; *************** function _ConfigureTimer1 *****************
  2044 ;; Defined at:
  2045 ;;		line 6 in file "CCP1.c"
  2046 ;; Parameters:    Size  Location     Type
  2047 ;;		None
  2048 ;; Auto vars:     Size  Location     Type
  2049 ;;		None
  2050 ;; Return value:  Size  Location     Type
  2051 ;;                  2  247[None  ] int 
  2052 ;; Registers used:
  2053 ;;		wreg, status,2, status,0
  2054 ;; Tracked objects:
  2055 ;;		On entry : 0/0
  2056 ;;		On exit  : 0/0
  2057 ;;		Unchanged: 0/0
  2058 ;; Data sizes:     COMRAM   BANK0   BANK1   BANK2   BANK3   BANK4   BANK5   BANK6   BANK7
  2059 ;;      Params:         0       0       0       0       0       0       0       0       0
  2060 ;;      Locals:         0       0       0       0       0       0       0       0       0
  2061 ;;      Temps:          0       0       0       0       0       0       0       0       0
  2062 ;;      Totals:         0       0       0       0       0       0       0       0       0
  2063 ;;Total ram usage:        0 bytes
  2064 ;; Hardware stack levels used:    1
  2065 ;; Hardware stack levels required when called:    2
  2066 ;; This function calls:
  2067 ;;		Nothing
  2068 ;; This function is called by:
  2069 ;;		_InitDHT11Driver
  2070 ;; This function uses a non-reentrant model
  2071 ;;
  2072                           
  2073                           	psect	text21
  2074  000A98                     __ptext21:
  2075                           	opt stack 0
  2076  000A98                     _ConfigureTimer1:
  2077                           	opt stack 27
  2078                           
  2079                           ;CCP1.c: 7: T1CONbits.RD16=1;
  2080                           
  2081                           ;incstack = 0
  2082  000A98  8ECD               	bsf	4045,7,c	;volatile
  2083                           
  2084                           ;CCP1.c: 8: T1RUN=1U;
  2085  000A9A  8CCD               	bsf	4045,6,c	;volatile
  2086                           
  2087                           ;CCP1.c: 9: T1OSCEN=1U;
  2088  000A9C  86CD               	bsf	4045,3,c	;volatile
  2089                           
  2090                           ;CCP1.c: 10: TMR1CS=0U;
  2091  000A9E  92CD               	bcf	4045,1,c	;volatile
  2092                           
  2093                           ;CCP1.c: 11: TMR1ON=0U;
  2094  000AA0  90CD               	bcf	4045,0,c	;volatile
  2095                           
  2096                           ;CCP1.c: 13: mask = T1CON & 0xCF;
  2097  000AA2  50CD               	movf	4045,w,c	;volatile
  2098  000AA4  0BCF               	andlw	207
  2099  000AA6  6E1F               	movwf	_mask,c
  2100                           
  2101                           ;CCP1.c: 14: if (prescaler == 8) T1CON = mask | 0x30;
  2102  000AA8  0E08               	movlw	8
  2103  000AAA  184C               	xorwf	_prescaler,w,c
  2104  000AAC  A4D8               	btfss	status,2,c
  2105  000AAE  D004               	goto	l1037
  2106  000AB0  501F               	movf	_mask,w,c
  2107  000AB2  0930               	iorlw	48
  2108  000AB4  6ECD               	movwf	4045,c	;volatile
  2109  000AB6  0012               	return	
  2110  000AB8                     l1037:
  2111                           
  2112                           ;CCP1.c: 15: else if (prescaler == 4) T1CON = mask | 0x20;
  2113  000AB8  0E04               	movlw	4
  2114  000ABA  184C               	xorwf	_prescaler,w,c
  2115  000ABC  A4D8               	btfss	status,2,c
  2116  000ABE  D004               	goto	l1041
  2117  000AC0  501F               	movf	_mask,w,c
  2118  000AC2  0920               	iorlw	32
  2119  000AC4  6ECD               	movwf	4045,c	;volatile
  2120  000AC6  0012               	return	
  2121  000AC8                     l1041:
  2122                           
  2123                           ;CCP1.c: 16: else if (prescaler == 2) T1CON = mask | 0x10;
  2124  000AC8  0E02               	movlw	2
  2125  000ACA  184C               	xorwf	_prescaler,w,c
  2126  000ACC  A4D8               	btfss	status,2,c
  2127  000ACE  D004               	goto	l323
  2128  000AD0  501F               	movf	_mask,w,c
  2129  000AD2  0910               	iorlw	16
  2130  000AD4  6ECD               	movwf	4045,c	;volatile
  2131  000AD6  0012               	return	
  2132  000AD8                     l323:
  2133                           
  2134                           ;CCP1.c: 17: else T1CON = mask;
  2135  000AD8  C01F  FFCD         	movff	_mask,4045	;volatile
  2136  000ADC  0012               	return	
  2137  000ADE                     __end_of_ConfigureTimer1:
  2138                           	opt stack 0
  2139                           tblptru	equ	0xFF8
  2140                           tblptrh	equ	0xFF7
  2141                           tblptrl	equ	0xFF6
  2142                           tablat	equ	0xFF5
  2143                           prodh	equ	0xFF4
  2144                           prodl	equ	0xFF3
  2145                           intcon	equ	0xFF2
  2146                           intcon2	equ	0xFF1
  2147                           intcon3	equ	0xFF0
  2148                           postinc0	equ	0xFEE
  2149                           wreg	equ	0xFE8
  2150                           postdec1	equ	0xFE5
  2151                           fsr1l	equ	0xFE1
  2152                           status	equ	0xFD8
  2153                           
  2154 ;; *************** function _HighISR *****************
  2155 ;; Defined at:
  2156 ;;		line 33 in file "Main.c"
  2157 ;; Parameters:    Size  Location     Type
  2158 ;;		None
  2159 ;; Auto vars:     Size  Location     Type
  2160 ;;		None
  2161 ;; Return value:  Size  Location     Type
  2162 ;;                  1    wreg      void 
  2163 ;; Registers used:
  2164 ;;		wreg, fsr2l, fsr2h, status,2, status,0, pclat, tosl, prodl, prodh, cstack
  2165 ;; Tracked objects:
  2166 ;;		On entry : 0/0
  2167 ;;		On exit  : 0/0
  2168 ;;		Unchanged: 0/0
  2169 ;; Data sizes:     COMRAM   BANK0   BANK1   BANK2   BANK3   BANK4   BANK5   BANK6   BANK7
  2170 ;;      Params:         0       0       0       0       0       0       0       0       0
  2171 ;;      Locals:         0       0       0       0       0       0       0       0       0
  2172 ;;      Temps:         14       0       0       0       0       0       0       0       0
  2173 ;;      Totals:        14       0       0       0       0       0       0       0       0
  2174 ;;Total ram usage:       14 bytes
  2175 ;; Hardware stack levels used:    1
  2176 ;; Hardware stack levels required when called:    1
  2177 ;; This function calls:
  2178 ;;		_DHTSignalResponse
  2179 ;;		_FirstStateRequest
  2180 ;;		_Idle
  2181 ;;		_RecievingData
  2182 ;;		_SecondStateRequest
  2183 ;;		i2_TMR0_WRITE_HIGH
  2184 ;;		i2_TMR0_WRITE_LOW
  2185 ;; This function is called by:
  2186 ;;		Interrupt level 2
  2187 ;; This function uses a non-reentrant model
  2188 ;;
  2189                           
  2190                           	psect	intcode
  2191  000008                     __pintcode:
  2192                           	opt stack 0
  2193  000008                     _HighISR:
  2194                           	opt stack 25
  2195                           
  2196                           ;incstack = 0
  2197  000008  824F               	bsf	btemp,1,c	;set compiler interrupt flag (level 2)
  2198  00000A  CFFA F026          	movff	pclath,??_HighISR
  2199  00000E  CFFB F027          	movff	pclatu,??_HighISR+1
  2200  000012  ED02  F004         	call	int_func,f	;refresh shadow registers
  2201                           pclatu	equ	0xFFB
  2202                           pclath	equ	0xFFA
  2203                           tblptru	equ	0xFF8
  2204                           tblptrh	equ	0xFF7
  2205                           tblptrl	equ	0xFF6
  2206                           tablat	equ	0xFF5
  2207                           prodh	equ	0xFF4
  2208                           prodl	equ	0xFF3
  2209                           intcon	equ	0xFF2
  2210                           intcon2	equ	0xFF1
  2211                           intcon3	equ	0xFF0
  2212                           postinc0	equ	0xFEE
  2213                           wreg	equ	0xFE8
  2214                           postdec1	equ	0xFE5
  2215                           fsr1l	equ	0xFE1
  2216                           status	equ	0xFD8
  2217                           
  2218                           	psect	intcode_body
  2219  000804                     __pintcode_body:
  2220                           	opt stack 25
  2221  000804                     int_func:
  2222                           	opt stack 25
  2223  000804  0006               	pop		; remove dummy address from shadow register refresh
  2224  000806  CFE9 F028          	movff	fsr0l,??_HighISR+2
  2225  00080A  CFEA F029          	movff	fsr0h,??_HighISR+3
  2226  00080E  CFE1 F02A          	movff	fsr1l,??_HighISR+4
  2227  000812  CFE2 F02B          	movff	fsr1h,??_HighISR+5
  2228  000816  CFD9 F02C          	movff	fsr2l,??_HighISR+6
  2229  00081A  CFDA F02D          	movff	fsr2h,??_HighISR+7
  2230  00081E  CFF3 F02E          	movff	prodl,??_HighISR+8
  2231  000822  CFF4 F02F          	movff	prodh,??_HighISR+9
  2232  000826  CFF6 F030          	movff	tblptrl,??_HighISR+10
  2233  00082A  CFF7 F031          	movff	tblptrh,??_HighISR+11
  2234  00082E  CFF8 F032          	movff	tblptru,??_HighISR+12
  2235  000832  CFF5 F033          	movff	tablat,??_HighISR+13
  2236                           
  2237                           ;Main.c: 35: if(INT2IF){
  2238  000836  A2F0               	btfss	intcon3,1,c	;volatile
  2239  000838  D008               	goto	i2l79
  2240                           
  2241                           ;Main.c: 36: INT2IF=0;
  2242  00083A  92F0               	bcf	intcon3,1,c	;volatile
  2243                           
  2244                           ;Main.c: 37: if(Light_f){
  2245  00083C  A24E               	btfss	_Light_f/(0+8),_Light_f& (0+7),c
  2246  00083E  D003               	goto	i2l80
  2247                           
  2248                           ;Main.c: 39: INTEDG2=0U;
  2249  000840  98F1               	bcf	intcon2,4,c	;volatile
  2250                           
  2251                           ;Main.c: 40: Light_f=0;
  2252  000842  924E               	bcf	_Light_f/(0+8),_Light_f& (0+7),c
  2253                           
  2254                           ;Main.c: 41: }
  2255  000844  D002               	goto	i2l79
  2256  000846                     i2l80:
  2257                           
  2258                           ;Main.c: 42: else{
  2259                           ;Main.c: 44: INTEDG2=1U;
  2260  000846  88F1               	bsf	intcon2,4,c	;volatile
  2261                           
  2262                           ;Main.c: 45: Light_f=1;
  2263  000848  824E               	bsf	_Light_f/(0+8),_Light_f& (0+7),c
  2264  00084A                     i2l79:
  2265                           
  2266                           ;Main.c: 46: }
  2267                           ;Main.c: 47: }
  2268                           ;Main.c: 49: if(ADIF){
  2269  00084A  BC9E               	btfsc	3998,6,c	;volatile
  2270                           
  2271                           ;Main.c: 50: ADIF=0;
  2272  00084C  9C9E               	bcf	3998,6,c	;volatile
  2273                           
  2274                           ;Main.c: 52: }
  2275                           ;Main.c: 54: if(TMR0IF){
  2276  00084E  A4F2               	btfss	intcon,2,c	;volatile
  2277  000850  D01E               	goto	i2l1331
  2278                           
  2279                           ;Main.c: 56: TMR0IF=0;
  2280  000852  94F2               	bcf	intcon,2,c	;volatile
  2281                           
  2282                           ;Main.c: 57: if(TimerCounter<2) TimerCounter++;
  2283  000854  0E02               	movlw	2
  2284  000856  6015               	cpfslt	_TimerCounter,c
  2285  000858  D002               	goto	i2l84
  2286  00085A  2A15               	incf	_TimerCounter,f,c
  2287  00085C  D011               	goto	i2l1325
  2288  00085E                     i2l84:
  2289                           
  2290                           ;Main.c: 58: else{
  2291                           ;Main.c: 59: TMR0ON = 0;
  2292  00085E  9ED5               	bcf	4053,7,c	;volatile
  2293                           
  2294                           ;Main.c: 60: DHT_StateMachine[_FirstStateRequest]();
  2295  000860  EE20  F040         	lfsr	2,_DHT_StateMachine+2
  2296  000864  D801               	call	i2u31_48
  2297  000866  D00A               	goto	i2l1323
  2298  000868                     i2u31_48:
  2299  000868  0005               	push	
  2300  00086A  6EFA               	movwf	pclath,c
  2301  00086C  50DE               	movf	postinc2,w,c
  2302  00086E  6EFD               	movwf	tosl,c
  2303  000870  50DE               	movf	postinc2,w,c
  2304  000872  6EFE               	movwf	tosh,c
  2305  000874  50F8               	movf	tblptru,w,c
  2306  000876  6EFF               	movwf	tosu,c
  2307  000878  50FA               	movf	pclath,w,c
  2308  00087A  0012               	return		;indir
  2309  00087C                     i2l1323:
  2310                           
  2311                           ;Main.c: 61: TimerCounter=0;
  2312  00087C  0E00               	movlw	0
  2313  00087E  6E15               	movwf	_TimerCounter,c
  2314  000880                     i2l1325:
  2315                           
  2316                           ;Main.c: 62: }
  2317                           ;Main.c: 63: TMR0_WRITE_HIGH(0xF0);
  2318  000880  0EF0               	movlw	240
  2319  000882  EC44  F006         	call	i2_TMR0_WRITE_HIGH
  2320                           
  2321                           ;Main.c: 64: TMR0_WRITE_LOW(0xBD);
  2322  000886  0EBD               	movlw	189
  2323  000888  EC40  F006         	call	i2_TMR0_WRITE_LOW
  2324                           
  2325                           ;Main.c: 65: TMR0ON = 1;
  2326  00088C  8ED5               	bsf	4053,7,c	;volatile
  2327  00088E                     i2l1331:
  2328                           
  2329                           ;Main.c: 66: }
  2330                           ;Main.c: 68: if (CCP1IF){
  2331  00088E  A49E               	btfss	3998,2,c	;volatile
  2332  000890  D015               	goto	i2l87
  2333                           
  2334                           ;Main.c: 69: CCP1IF=0;
  2335  000892  949E               	bcf	3998,2,c	;volatile
  2336                           
  2337                           ;Main.c: 70: (*DHT_StateMachine[state])();
  2338  000894  5022               	movf	_state,w,c
  2339  000896  0D02               	mullw	2
  2340  000898  0E3E               	movlw	low _DHT_StateMachine
  2341  00089A  24F3               	addwf	prodl,w,c
  2342  00089C  6ED9               	movwf	fsr2l,c
  2343  00089E  0E00               	movlw	high _DHT_StateMachine
  2344  0008A0  20F4               	addwfc	prodh,w,c
  2345  0008A2  6EDA               	movwf	fsr2h,c
  2346  0008A4  D801               	call	i2u33_48
  2347  0008A6  D00A               	goto	i2l87
  2348  0008A8                     i2u33_48:
  2349  0008A8  0005               	push	
  2350  0008AA  6EFA               	movwf	pclath,c
  2351  0008AC  50DE               	movf	postinc2,w,c
  2352  0008AE  6EFD               	movwf	tosl,c
  2353  0008B0  50DE               	movf	postinc2,w,c
  2354  0008B2  6EFE               	movwf	tosh,c
  2355  0008B4  50F8               	movf	tblptru,w,c
  2356  0008B6  6EFF               	movwf	tosu,c
  2357  0008B8  50FA               	movf	pclath,w,c
  2358  0008BA  0012               	return		;indir
  2359  0008BC                     i2l87:
  2360  0008BC  C033  FFF5         	movff	??_HighISR+13,tablat
  2361  0008C0  C032  FFF8         	movff	??_HighISR+12,tblptru
  2362  0008C4  C031  FFF7         	movff	??_HighISR+11,tblptrh
  2363  0008C8  C030  FFF6         	movff	??_HighISR+10,tblptrl
  2364  0008CC  C02F  FFF4         	movff	??_HighISR+9,prodh
  2365  0008D0  C02E  FFF3         	movff	??_HighISR+8,prodl
  2366  0008D4  C02D  FFDA         	movff	??_HighISR+7,fsr2h
  2367  0008D8  C02C  FFD9         	movff	??_HighISR+6,fsr2l
  2368  0008DC  C02B  FFE2         	movff	??_HighISR+5,fsr1h
  2369  0008E0  C02A  FFE1         	movff	??_HighISR+4,fsr1l
  2370  0008E4  C029  FFEA         	movff	??_HighISR+3,fsr0h
  2371  0008E8  C028  FFE9         	movff	??_HighISR+2,fsr0l
  2372  0008EC  C027  FFFB         	movff	??_HighISR+1,pclatu
  2373  0008F0  C026  FFFA         	movff	??_HighISR,pclath
  2374  0008F4  924F               	bcf	btemp,1,c	;clear compiler interrupt flag (level 2)
  2375  0008F6  0011               	retfie		f
  2376  0008F8                     __end_of_HighISR:
  2377                           	opt stack 0
  2378                           tosu	equ	0xFFF
  2379                           tosh	equ	0xFFE
  2380                           tosl	equ	0xFFD
  2381                           pclatu	equ	0xFFB
  2382                           pclath	equ	0xFFA
  2383                           tblptru	equ	0xFF8
  2384                           tblptrh	equ	0xFF7
  2385                           tblptrl	equ	0xFF6
  2386                           tablat	equ	0xFF5
  2387                           prodh	equ	0xFF4
  2388                           prodl	equ	0xFF3
  2389                           intcon	equ	0xFF2
  2390                           intcon2	equ	0xFF1
  2391                           intcon3	equ	0xFF0
  2392                           postinc0	equ	0xFEE
  2393                           fsr0h	equ	0xFEA
  2394                           fsr0l	equ	0xFE9
  2395                           wreg	equ	0xFE8
  2396                           postdec1	equ	0xFE5
  2397                           fsr1h	equ	0xFE2
  2398                           fsr1l	equ	0xFE1
  2399                           postinc2	equ	0xFDE
  2400                           fsr2h	equ	0xFDA
  2401                           fsr2l	equ	0xFD9
  2402                           status	equ	0xFD8
  2403                           
  2404 ;; *************** function i2_TMR0_WRITE_LOW *****************
  2405 ;; Defined at:
  2406 ;;		line 79 in file "Timer_0.c"
  2407 ;; Parameters:    Size  Location     Type
  2408 ;;  valorLow        1    wreg     unsigned char 
  2409 ;; Auto vars:     Size  Location     Type
  2410 ;;  valorLow        1    0[COMRAM] unsigned char 
  2411 ;; Return value:  Size  Location     Type
  2412 ;;                  1    wreg      void 
  2413 ;; Registers used:
  2414 ;;		wreg
  2415 ;; Tracked objects:
  2416 ;;		On entry : 0/0
  2417 ;;		On exit  : 0/0
  2418 ;;		Unchanged: 0/0
  2419 ;; Data sizes:     COMRAM   BANK0   BANK1   BANK2   BANK3   BANK4   BANK5   BANK6   BANK7
  2420 ;;      Params:         0       0       0       0       0       0       0       0       0
  2421 ;;      Locals:         1       0       0       0       0       0       0       0       0
  2422 ;;      Temps:          0       0       0       0       0       0       0       0       0
  2423 ;;      Totals:         1       0       0       0       0       0       0       0       0
  2424 ;;Total ram usage:        1 bytes
  2425 ;; Hardware stack levels used:    1
  2426 ;; This function calls:
  2427 ;;		Nothing
  2428 ;; This function is called by:
  2429 ;;		_HighISR
  2430 ;; This function uses a non-reentrant model
  2431 ;;
  2432                           
  2433                           	psect	text23
  2434  000C80                     __ptext23:
  2435                           	opt stack 0
  2436  000C80                     i2_TMR0_WRITE_LOW:
  2437                           	opt stack 25
  2438                           
  2439                           ;incstack = 0
  2440                           ;i2TMR0_WRITE_LOW@valorLow stored from wreg
  2441  000C80  6E24               	movwf	i2TMR0_WRITE_LOW@valorLow,c
  2442                           
  2443                           ;Timer_0.c: 81: TMR0L=valorLow;
  2444  000C82  C024  FFD6         	movff	i2TMR0_WRITE_LOW@valorLow,4054	;volatile
  2445  000C86  0012               	return		;funcret
  2446  000C88                     __end_ofi2_TMR0_WRITE_LOW:
  2447                           	opt stack 0
  2448                           tosu	equ	0xFFF
  2449                           tosh	equ	0xFFE
  2450                           tosl	equ	0xFFD
  2451                           pclatu	equ	0xFFB
  2452                           pclath	equ	0xFFA
  2453                           tblptru	equ	0xFF8
  2454                           tblptrh	equ	0xFF7
  2455                           tblptrl	equ	0xFF6
  2456                           tablat	equ	0xFF5
  2457                           prodh	equ	0xFF4
  2458                           prodl	equ	0xFF3
  2459                           intcon	equ	0xFF2
  2460                           intcon2	equ	0xFF1
  2461                           intcon3	equ	0xFF0
  2462                           postinc0	equ	0xFEE
  2463                           fsr0h	equ	0xFEA
  2464                           fsr0l	equ	0xFE9
  2465                           wreg	equ	0xFE8
  2466                           postdec1	equ	0xFE5
  2467                           fsr1h	equ	0xFE2
  2468                           fsr1l	equ	0xFE1
  2469                           postinc2	equ	0xFDE
  2470                           fsr2h	equ	0xFDA
  2471                           fsr2l	equ	0xFD9
  2472                           status	equ	0xFD8
  2473                           
  2474 ;; *************** function i2_TMR0_WRITE_HIGH *****************
  2475 ;; Defined at:
  2476 ;;		line 66 in file "Timer_0.c"
  2477 ;; Parameters:    Size  Location     Type
  2478 ;;  valorHigh       1    wreg     unsigned char 
  2479 ;; Auto vars:     Size  Location     Type
  2480 ;;  valorHigh       1    0[COMRAM] unsigned char 
  2481 ;; Return value:  Size  Location     Type
  2482 ;;                  1    wreg      void 
  2483 ;; Registers used:
  2484 ;;		wreg
  2485 ;; Tracked objects:
  2486 ;;		On entry : 0/0
  2487 ;;		On exit  : 0/0
  2488 ;;		Unchanged: 0/0
  2489 ;; Data sizes:     COMRAM   BANK0   BANK1   BANK2   BANK3   BANK4   BANK5   BANK6   BANK7
  2490 ;;      Params:         0       0       0       0       0       0       0       0       0
  2491 ;;      Locals:         1       0       0       0       0       0       0       0       0
  2492 ;;      Temps:          0       0       0       0       0       0       0       0       0
  2493 ;;      Totals:         1       0       0       0       0       0       0       0       0
  2494 ;;Total ram usage:        1 bytes
  2495 ;; Hardware stack levels used:    1
  2496 ;; This function calls:
  2497 ;;		Nothing
  2498 ;; This function is called by:
  2499 ;;		_HighISR
  2500 ;; This function uses a non-reentrant model
  2501 ;;
  2502                           
  2503                           	psect	text24
  2504  000C88                     __ptext24:
  2505                           	opt stack 0
  2506  000C88                     i2_TMR0_WRITE_HIGH:
  2507                           	opt stack 25
  2508                           
  2509                           ;incstack = 0
  2510                           ;i2TMR0_WRITE_HIGH@valorHigh stored from wreg
  2511  000C88  6E24               	movwf	i2TMR0_WRITE_HIGH@valorHigh,c
  2512                           
  2513                           ;Timer_0.c: 68: TMR0H=valorHigh;
  2514  000C8A  C024  FFD7         	movff	i2TMR0_WRITE_HIGH@valorHigh,4055	;volatile
  2515  000C8E  0012               	return		;funcret
  2516  000C90                     __end_ofi2_TMR0_WRITE_HIGH:
  2517                           	opt stack 0
  2518                           tosu	equ	0xFFF
  2519                           tosh	equ	0xFFE
  2520                           tosl	equ	0xFFD
  2521                           pclatu	equ	0xFFB
  2522                           pclath	equ	0xFFA
  2523                           tblptru	equ	0xFF8
  2524                           tblptrh	equ	0xFF7
  2525                           tblptrl	equ	0xFF6
  2526                           tablat	equ	0xFF5
  2527                           prodh	equ	0xFF4
  2528                           prodl	equ	0xFF3
  2529                           intcon	equ	0xFF2
  2530                           intcon2	equ	0xFF1
  2531                           intcon3	equ	0xFF0
  2532                           postinc0	equ	0xFEE
  2533                           fsr0h	equ	0xFEA
  2534                           fsr0l	equ	0xFE9
  2535                           wreg	equ	0xFE8
  2536                           postdec1	equ	0xFE5
  2537                           fsr1h	equ	0xFE2
  2538                           fsr1l	equ	0xFE1
  2539                           postinc2	equ	0xFDE
  2540                           fsr2h	equ	0xFDA
  2541                           fsr2l	equ	0xFD9
  2542                           status	equ	0xFD8
  2543                           
  2544 ;; *************** function _RecievingData *****************
  2545 ;; Defined at:
  2546 ;;		line 62 in file "DHT11Driver.c"
  2547 ;; Parameters:    Size  Location     Type
  2548 ;;		None
  2549 ;; Auto vars:     Size  Location     Type
  2550 ;;		None
  2551 ;; Return value:  Size  Location     Type
  2552 ;;                  1    wreg      void 
  2553 ;; Registers used:
  2554 ;;		wreg, fsr2l, fsr2h, status,2, status,0, prodl, prodh
  2555 ;; Tracked objects:
  2556 ;;		On entry : 0/0
  2557 ;;		On exit  : 0/0
  2558 ;;		Unchanged: 0/0
  2559 ;; Data sizes:     COMRAM   BANK0   BANK1   BANK2   BANK3   BANK4   BANK5   BANK6   BANK7
  2560 ;;      Params:         0       0       0       0       0       0       0       0       0
  2561 ;;      Locals:         0       0       0       0       0       0       0       0       0
  2562 ;;      Temps:          2       0       0       0       0       0       0       0       0
  2563 ;;      Totals:         2       0       0       0       0       0       0       0       0
  2564 ;;Total ram usage:        2 bytes
  2565 ;; Hardware stack levels used:    1
  2566 ;; This function calls:
  2567 ;;		Nothing
  2568 ;; This function is called by:
  2569 ;;		_HighISR
  2570 ;; This function uses a non-reentrant model
  2571 ;;
  2572                           
  2573                           	psect	text25
  2574  0009FC                     __ptext25:
  2575                           	opt stack 0
  2576  0009FC                     _RecievingData:
  2577                           	opt stack 25
  2578                           
  2579                           ;DHT11Driver.c: 64: times[bitcount]=CCPR1-lasttime;
  2580                           
  2581                           ;incstack = 0
  2582  0009FC  C00F  F024         	movff	_lasttime,??_RecievingData
  2583  000A00  C010  F025         	movff	_lasttime+1,??_RecievingData+1
  2584  000A04  1E24               	comf	??_RecievingData,f,c
  2585  000A06  1E25               	comf	??_RecievingData+1,f,c
  2586  000A08  4A24               	infsnz	??_RecievingData,f,c
  2587  000A0A  2A25               	incf	??_RecievingData+1,f,c
  2588  000A0C  50BE               	movf	4030,w,c	;volatile
  2589  000A0E  2624               	addwf	??_RecievingData,f,c
  2590  000A10  50BF               	movf	4031,w,c	;volatile
  2591  000A12  2225               	addwfc	??_RecievingData+1,f,c
  2592  000A14  5016               	movf	_bitcount,w,c
  2593  000A16  0D02               	mullw	2
  2594  000A18  0E60               	movlw	low _times
  2595  000A1A  24F3               	addwf	prodl,w,c
  2596  000A1C  6ED9               	movwf	fsr2l,c
  2597  000A1E  0E00               	movlw	high _times
  2598  000A20  20F4               	addwfc	prodh,w,c
  2599  000A22  6EDA               	movwf	fsr2h,c
  2600  000A24  C024  FFDE         	movff	??_RecievingData,postinc2
  2601  000A28  C025  FFDD         	movff	??_RecievingData+1,postdec2
  2602                           
  2603                           ;DHT11Driver.c: 65: lasttime=CCPR1;
  2604  000A2C  CFBE F00F          	movff	4030,_lasttime	;volatile
  2605  000A30  CFBF F010          	movff	4031,_lasttime+1	;volatile
  2606                           
  2607                           ;DHT11Driver.c: 66: bitcount++;
  2608  000A34  2A16               	incf	_bitcount,f,c
  2609                           
  2610                           ;DHT11Driver.c: 89: if(bitcount==25){
  2611  000A36  0E19               	movlw	25
  2612  000A38  1816               	xorwf	_bitcount,w,c
  2613  000A3A  A4D8               	btfss	status,2,c
  2614  000A3C  0012               	return	
  2615                           
  2616                           ;DHT11Driver.c: 92: T1CON--;
  2617  000A3E  06CD               	decf	4045,f,c	;volatile
  2618                           
  2619                           ;DHT11Driver.c: 93: CCP1IE=0;
  2620  000A40  949D               	bcf	3997,2,c	;volatile
  2621                           
  2622                           ;DHT11Driver.c: 95: (TRISCbits.TRISC2 = 0);
  2623  000A42  9494               	bcf	3988,2,c	;volatile
  2624                           
  2625                           ;DHT11Driver.c: 97: (LATC2=1U);
  2626  000A44  848B               	bsf	3979,2,c	;volatile
  2627                           
  2628                           ;DHT11Driver.c: 98: bitcount=0;
  2629  000A46  0E00               	movlw	0
  2630  000A48  6E16               	movwf	_bitcount,c
  2631                           
  2632                           ;DHT11Driver.c: 99: state = _Idle;
  2633  000A4A  0E00               	movlw	0
  2634  000A4C  6E22               	movwf	_state,c
  2635  000A4E  0012               	return	
  2636  000A50                     __end_of_RecievingData:
  2637                           	opt stack 0
  2638                           tosu	equ	0xFFF
  2639                           tosh	equ	0xFFE
  2640                           tosl	equ	0xFFD
  2641                           pclatu	equ	0xFFB
  2642                           pclath	equ	0xFFA
  2643                           tblptru	equ	0xFF8
  2644                           tblptrh	equ	0xFF7
  2645                           tblptrl	equ	0xFF6
  2646                           tablat	equ	0xFF5
  2647                           prodh	equ	0xFF4
  2648                           prodl	equ	0xFF3
  2649                           intcon	equ	0xFF2
  2650                           intcon2	equ	0xFF1
  2651                           intcon3	equ	0xFF0
  2652                           postinc0	equ	0xFEE
  2653                           fsr0h	equ	0xFEA
  2654                           fsr0l	equ	0xFE9
  2655                           wreg	equ	0xFE8
  2656                           postdec1	equ	0xFE5
  2657                           fsr1h	equ	0xFE2
  2658                           fsr1l	equ	0xFE1
  2659                           postinc2	equ	0xFDE
  2660                           postdec2	equ	0xFDD
  2661                           fsr2h	equ	0xFDA
  2662                           fsr2l	equ	0xFD9
  2663                           status	equ	0xFD8
  2664                           
  2665 ;; *************** function _DHTSignalResponse *****************
  2666 ;; Defined at:
  2667 ;;		line 51 in file "DHT11Driver.c"
  2668 ;; Parameters:    Size  Location     Type
  2669 ;;		None
  2670 ;; Auto vars:     Size  Location     Type
  2671 ;;		None
  2672 ;; Return value:  Size  Location     Type
  2673 ;;                  1    wreg      void 
  2674 ;; Registers used:
  2675 ;;		wreg, status,2, status,0
  2676 ;; Tracked objects:
  2677 ;;		On entry : 0/0
  2678 ;;		On exit  : 0/0
  2679 ;;		Unchanged: 0/0
  2680 ;; Data sizes:     COMRAM   BANK0   BANK1   BANK2   BANK3   BANK4   BANK5   BANK6   BANK7
  2681 ;;      Params:         0       0       0       0       0       0       0       0       0
  2682 ;;      Locals:         0       0       0       0       0       0       0       0       0
  2683 ;;      Temps:          0       0       0       0       0       0       0       0       0
  2684 ;;      Totals:         0       0       0       0       0       0       0       0       0
  2685 ;;Total ram usage:        0 bytes
  2686 ;; Hardware stack levels used:    1
  2687 ;; This function calls:
  2688 ;;		Nothing
  2689 ;; This function is called by:
  2690 ;;		_HighISR
  2691 ;; This function uses a non-reentrant model
  2692 ;;
  2693                           
  2694                           	psect	text26
  2695  000BBC                     __ptext26:
  2696                           	opt stack 0
  2697  000BBC                     _DHTSignalResponse:
  2698                           	opt stack 25
  2699                           
  2700                           ;DHT11Driver.c: 52: T1CON--;
  2701                           
  2702                           ;incstack = 0
  2703  000BBC  06CD               	decf	4045,f,c	;volatile
  2704                           
  2705                           ;DHT11Driver.c: 53: TMR1H=0;
  2706  000BBE  0E00               	movlw	0
  2707  000BC0  6ECF               	movwf	4047,c	;volatile
  2708                           
  2709                           ;DHT11Driver.c: 54: TMR1L=0;
  2710  000BC2  0E00               	movlw	0
  2711  000BC4  6ECE               	movwf	4046,c	;volatile
  2712                           
  2713                           ;DHT11Driver.c: 55: T1CON++;
  2714  000BC6  2ACD               	incf	4045,f,c	;volatile
  2715                           
  2716                           ;DHT11Driver.c: 57: lasttime=CCPR1;
  2717  000BC8  CFBE F00F          	movff	4030,_lasttime	;volatile
  2718  000BCC  CFBF F010          	movff	4031,_lasttime+1	;volatile
  2719                           
  2720                           ;DHT11Driver.c: 59: state=_RecievingData;
  2721  000BD0  0E04               	movlw	4
  2722  000BD2  6E22               	movwf	_state,c
  2723  000BD4  0012               	return		;funcret
  2724  000BD6                     __end_of_DHTSignalResponse:
  2725                           	opt stack 0
  2726                           tosu	equ	0xFFF
  2727                           tosh	equ	0xFFE
  2728                           tosl	equ	0xFFD
  2729                           pclatu	equ	0xFFB
  2730                           pclath	equ	0xFFA
  2731                           tblptru	equ	0xFF8
  2732                           tblptrh	equ	0xFF7
  2733                           tblptrl	equ	0xFF6
  2734                           tablat	equ	0xFF5
  2735                           prodh	equ	0xFF4
  2736                           prodl	equ	0xFF3
  2737                           intcon	equ	0xFF2
  2738                           intcon2	equ	0xFF1
  2739                           intcon3	equ	0xFF0
  2740                           postinc0	equ	0xFEE
  2741                           fsr0h	equ	0xFEA
  2742                           fsr0l	equ	0xFE9
  2743                           wreg	equ	0xFE8
  2744                           postdec1	equ	0xFE5
  2745                           fsr1h	equ	0xFE2
  2746                           fsr1l	equ	0xFE1
  2747                           postinc2	equ	0xFDE
  2748                           postdec2	equ	0xFDD
  2749                           fsr2h	equ	0xFDA
  2750                           fsr2l	equ	0xFD9
  2751                           status	equ	0xFD8
  2752                           
  2753 ;; *************** function _FirstStateRequest *****************
  2754 ;; Defined at:
  2755 ;;		line 22 in file "DHT11Driver.c"
  2756 ;; Parameters:    Size  Location     Type
  2757 ;;		None
  2758 ;; Auto vars:     Size  Location     Type
  2759 ;;		None
  2760 ;; Return value:  Size  Location     Type
  2761 ;;                  1    wreg      void 
  2762 ;; Registers used:
  2763 ;;		wreg, status,2, status,0
  2764 ;; Tracked objects:
  2765 ;;		On entry : 0/0
  2766 ;;		On exit  : 0/0
  2767 ;;		Unchanged: 0/0
  2768 ;; Data sizes:     COMRAM   BANK0   BANK1   BANK2   BANK3   BANK4   BANK5   BANK6   BANK7
  2769 ;;      Params:         0       0       0       0       0       0       0       0       0
  2770 ;;      Locals:         0       0       0       0       0       0       0       0       0
  2771 ;;      Temps:          0       0       0       0       0       0       0       0       0
  2772 ;;      Totals:         0       0       0       0       0       0       0       0       0
  2773 ;;Total ram usage:        0 bytes
  2774 ;; Hardware stack levels used:    1
  2775 ;; This function calls:
  2776 ;;		Nothing
  2777 ;; This function is called by:
  2778 ;;		_HighISR
  2779 ;; This function uses a non-reentrant model
  2780 ;;
  2781                           
  2782                           	psect	text27
  2783  000ADE                     __ptext27:
  2784                           	opt stack 0
  2785  000ADE                     _FirstStateRequest:
  2786                           	opt stack 25
  2787                           
  2788                           ;DHT11Driver.c: 24: CCP1IE=1U;
  2789                           
  2790                           ;incstack = 0
  2791  000ADE  849D               	bsf	3997,2,c	;volatile
  2792                           
  2793                           ;DHT11Driver.c: 26: CCP1CON=0x08;
  2794  000AE0  0E08               	movlw	8
  2795  000AE2  6EBD               	movwf	4029,c	;volatile
  2796                           
  2797                           ;DHT11Driver.c: 28: TMR1H=0;
  2798  000AE4  0E00               	movlw	0
  2799  000AE6  6ECF               	movwf	4047,c	;volatile
  2800                           
  2801                           ;DHT11Driver.c: 29: TMR1L=0;
  2802  000AE8  0E00               	movlw	0
  2803  000AEA  6ECE               	movwf	4046,c	;volatile
  2804                           
  2805                           ;DHT11Driver.c: 31: counts=TMR1+65534;
  2806  000AEC  0EFE               	movlw	254
  2807  000AEE  24CE               	addwf	4046,w,c	;volatile
  2808  000AF0  6E0D               	movwf	_counts,c
  2809  000AF2  0EFF               	movlw	255
  2810  000AF4  20CF               	addwfc	4047,w,c	;volatile
  2811  000AF6  6E0E               	movwf	_counts+1,c
  2812                           
  2813                           ;DHT11Driver.c: 32: T3CON=0b10100000;
  2814  000AF8  0EA0               	movlw	160
  2815  000AFA  6EB1               	movwf	4017,c	;volatile
  2816                           
  2817                           ;DHT11Driver.c: 33: T1CON=0b11001000;
  2818  000AFC  0EC8               	movlw	200
  2819  000AFE  6ECD               	movwf	4045,c	;volatile
  2820                           
  2821                           ;DHT11Driver.c: 35: (TRISCbits.TRISC2 = 0);
  2822  000B00  9494               	bcf	3988,2,c	;volatile
  2823                           
  2824                           ;DHT11Driver.c: 38: CCPR1H=counts>>8;
  2825  000B02  500E               	movf	_counts+1,w,c
  2826  000B04  6EBF               	movwf	4031,c	;volatile
  2827                           
  2828                           ;DHT11Driver.c: 39: CCPR1L=(u8)counts;
  2829  000B06  C00D  FFBE         	movff	_counts,4030	;volatile
  2830                           
  2831                           ;DHT11Driver.c: 41: T1CON++;
  2832  000B0A  2ACD               	incf	4045,f,c	;volatile
  2833                           
  2834                           ;DHT11Driver.c: 42: state = _SecondStateRequest;
  2835  000B0C  0E02               	movlw	2
  2836  000B0E  6E22               	movwf	_state,c
  2837  000B10  0012               	return		;funcret
  2838  000B12                     __end_of_FirstStateRequest:
  2839                           	opt stack 0
  2840                           tosu	equ	0xFFF
  2841                           tosh	equ	0xFFE
  2842                           tosl	equ	0xFFD
  2843                           pclatu	equ	0xFFB
  2844                           pclath	equ	0xFFA
  2845                           tblptru	equ	0xFF8
  2846                           tblptrh	equ	0xFF7
  2847                           tblptrl	equ	0xFF6
  2848                           tablat	equ	0xFF5
  2849                           prodh	equ	0xFF4
  2850                           prodl	equ	0xFF3
  2851                           intcon	equ	0xFF2
  2852                           intcon2	equ	0xFF1
  2853                           intcon3	equ	0xFF0
  2854                           postinc0	equ	0xFEE
  2855                           fsr0h	equ	0xFEA
  2856                           fsr0l	equ	0xFE9
  2857                           wreg	equ	0xFE8
  2858                           postdec1	equ	0xFE5
  2859                           fsr1h	equ	0xFE2
  2860                           fsr1l	equ	0xFE1
  2861                           postinc2	equ	0xFDE
  2862                           postdec2	equ	0xFDD
  2863                           fsr2h	equ	0xFDA
  2864                           fsr2l	equ	0xFD9
  2865                           status	equ	0xFD8
  2866                           
  2867 ;; *************** function _Idle *****************
  2868 ;; Defined at:
  2869 ;;		line 19 in file "DHT11Driver.c"
  2870 ;; Parameters:    Size  Location     Type
  2871 ;;		None
  2872 ;; Auto vars:     Size  Location     Type
  2873 ;;		None
  2874 ;; Return value:  Size  Location     Type
  2875 ;;                  1    wreg      void 
  2876 ;; Registers used:
  2877 ;;		None
  2878 ;; Tracked objects:
  2879 ;;		On entry : 0/0
  2880 ;;		On exit  : 0/0
  2881 ;;		Unchanged: 0/0
  2882 ;; Data sizes:     COMRAM   BANK0   BANK1   BANK2   BANK3   BANK4   BANK5   BANK6   BANK7
  2883 ;;      Params:         0       0       0       0       0       0       0       0       0
  2884 ;;      Locals:         0       0       0       0       0       0       0       0       0
  2885 ;;      Temps:          0       0       0       0       0       0       0       0       0
  2886 ;;      Totals:         0       0       0       0       0       0       0       0       0
  2887 ;;Total ram usage:        0 bytes
  2888 ;; Hardware stack levels used:    1
  2889 ;; This function calls:
  2890 ;;		Nothing
  2891 ;; This function is called by:
  2892 ;;		_HighISR
  2893 ;; This function uses a non-reentrant model
  2894 ;;
  2895                           
  2896                           	psect	text28
  2897  000C9A                     __ptext28:
  2898                           	opt stack 0
  2899  000C9A                     _Idle:
  2900                           	opt stack 25
  2901                           
  2902                           ;incstack = 0
  2903  000C9A  0012               	return		;funcret
  2904  000C9C                     __end_of_Idle:
  2905                           	opt stack 0
  2906                           tosu	equ	0xFFF
  2907                           tosh	equ	0xFFE
  2908                           tosl	equ	0xFFD
  2909                           pclatu	equ	0xFFB
  2910                           pclath	equ	0xFFA
  2911                           tblptru	equ	0xFF8
  2912                           tblptrh	equ	0xFF7
  2913                           tblptrl	equ	0xFF6
  2914                           tablat	equ	0xFF5
  2915                           prodh	equ	0xFF4
  2916                           prodl	equ	0xFF3
  2917                           intcon	equ	0xFF2
  2918                           intcon2	equ	0xFF1
  2919                           intcon3	equ	0xFF0
  2920                           postinc0	equ	0xFEE
  2921                           fsr0h	equ	0xFEA
  2922                           fsr0l	equ	0xFE9
  2923                           wreg	equ	0xFE8
  2924                           postdec1	equ	0xFE5
  2925                           fsr1h	equ	0xFE2
  2926                           fsr1l	equ	0xFE1
  2927                           postinc2	equ	0xFDE
  2928                           postdec2	equ	0xFDD
  2929                           fsr2h	equ	0xFDA
  2930                           fsr2l	equ	0xFD9
  2931                           status	equ	0xFD8
  2932                           
  2933 ;; *************** function _SecondStateRequest *****************
  2934 ;; Defined at:
  2935 ;;		line 44 in file "DHT11Driver.c"
  2936 ;; Parameters:    Size  Location     Type
  2937 ;;		None
  2938 ;; Auto vars:     Size  Location     Type
  2939 ;;		None
  2940 ;; Return value:  Size  Location     Type
  2941 ;;                  1    wreg      void 
  2942 ;; Registers used:
  2943 ;;		wreg, status,2
  2944 ;; Tracked objects:
  2945 ;;		On entry : 0/0
  2946 ;;		On exit  : 0/0
  2947 ;;		Unchanged: 0/0
  2948 ;; Data sizes:     COMRAM   BANK0   BANK1   BANK2   BANK3   BANK4   BANK5   BANK6   BANK7
  2949 ;;      Params:         0       0       0       0       0       0       0       0       0
  2950 ;;      Locals:         0       0       0       0       0       0       0       0       0
  2951 ;;      Temps:          0       0       0       0       0       0       0       0       0
  2952 ;;      Totals:         0       0       0       0       0       0       0       0       0
  2953 ;;Total ram usage:        0 bytes
  2954 ;; Hardware stack levels used:    1
  2955 ;; This function calls:
  2956 ;;		Nothing
  2957 ;; This function is called by:
  2958 ;;		_HighISR
  2959 ;; This function uses a non-reentrant model
  2960 ;;
  2961                           
  2962                           	psect	text29
  2963  000C48                     __ptext29:
  2964                           	opt stack 0
  2965  000C48                     _SecondStateRequest:
  2966                           	opt stack 25
  2967                           
  2968                           ;DHT11Driver.c: 45: CCP1CON=0x04;
  2969                           
  2970                           ;incstack = 0
  2971  000C48  0E04               	movlw	4
  2972  000C4A  6EBD               	movwf	4029,c	;volatile
  2973                           
  2974                           ;DHT11Driver.c: 47: (TRISCbits.TRISC2 = 1);
  2975  000C4C  8494               	bsf	3988,2,c	;volatile
  2976                           
  2977                           ;DHT11Driver.c: 48: state = _DHTSignalResponse;
  2978  000C4E  0E03               	movlw	3
  2979  000C50  6E22               	movwf	_state,c
  2980  000C52  0012               	return		;funcret
  2981  000C54                     __end_of_SecondStateRequest:
  2982                           	opt stack 0
  2983                           tosu	equ	0xFFF
  2984                           tosh	equ	0xFFE
  2985                           tosl	equ	0xFFD
  2986                           pclatu	equ	0xFFB
  2987                           pclath	equ	0xFFA
  2988                           tblptru	equ	0xFF8
  2989                           tblptrh	equ	0xFF7
  2990                           tblptrl	equ	0xFF6
  2991                           tablat	equ	0xFF5
  2992                           prodh	equ	0xFF4
  2993                           prodl	equ	0xFF3
  2994                           intcon	equ	0xFF2
  2995                           intcon2	equ	0xFF1
  2996                           intcon3	equ	0xFF0
  2997                           postinc0	equ	0xFEE
  2998                           fsr0h	equ	0xFEA
  2999                           fsr0l	equ	0xFE9
  3000                           wreg	equ	0xFE8
  3001                           postdec1	equ	0xFE5
  3002                           fsr1h	equ	0xFE2
  3003                           fsr1l	equ	0xFE1
  3004                           postinc2	equ	0xFDE
  3005                           postdec2	equ	0xFDD
  3006                           fsr2h	equ	0xFDA
  3007                           fsr2l	equ	0xFD9
  3008                           status	equ	0xFD8
  3009                           tosu	equ	0xFFF
  3010                           tosh	equ	0xFFE
  3011                           tosl	equ	0xFFD
  3012                           pclatu	equ	0xFFB
  3013                           pclath	equ	0xFFA
  3014                           tblptru	equ	0xFF8
  3015                           tblptrh	equ	0xFF7
  3016                           tblptrl	equ	0xFF6
  3017                           tablat	equ	0xFF5
  3018                           prodh	equ	0xFF4
  3019                           prodl	equ	0xFF3
  3020                           intcon	equ	0xFF2
  3021                           intcon2	equ	0xFF1
  3022                           intcon3	equ	0xFF0
  3023                           postinc0	equ	0xFEE
  3024                           fsr0h	equ	0xFEA
  3025                           fsr0l	equ	0xFE9
  3026                           wreg	equ	0xFE8
  3027                           postdec1	equ	0xFE5
  3028                           fsr1h	equ	0xFE2
  3029                           fsr1l	equ	0xFE1
  3030                           postinc2	equ	0xFDE
  3031                           postdec2	equ	0xFDD
  3032                           fsr2h	equ	0xFDA
  3033                           fsr2l	equ	0xFD9
  3034                           status	equ	0xFD8
  3035                           
  3036                           	psect	text30
  3037  000000                     __ptext30:
  3038                           	opt stack 0
  3039                           tosu	equ	0xFFF
  3040                           tosh	equ	0xFFE
  3041                           tosl	equ	0xFFD
  3042                           pclatu	equ	0xFFB
  3043                           pclath	equ	0xFFA
  3044                           tblptru	equ	0xFF8
  3045                           tblptrh	equ	0xFF7
  3046                           tblptrl	equ	0xFF6
  3047                           tablat	equ	0xFF5
  3048                           prodh	equ	0xFF4
  3049                           prodl	equ	0xFF3
  3050                           intcon	equ	0xFF2
  3051                           intcon2	equ	0xFF1
  3052                           intcon3	equ	0xFF0
  3053                           postinc0	equ	0xFEE
  3054                           fsr0h	equ	0xFEA
  3055                           fsr0l	equ	0xFE9
  3056                           wreg	equ	0xFE8
  3057                           postdec1	equ	0xFE5
  3058                           fsr1h	equ	0xFE2
  3059                           fsr1l	equ	0xFE1
  3060                           postinc2	equ	0xFDE
  3061                           postdec2	equ	0xFDD
  3062                           fsr2h	equ	0xFDA
  3063                           fsr2l	equ	0xFD9
  3064                           status	equ	0xFD8
  3065                           
  3066                           	psect	rparam
  3067  0000                     tosu	equ	0xFFF
  3068                           tosh	equ	0xFFE
  3069                           tosl	equ	0xFFD
  3070                           pclatu	equ	0xFFB
  3071                           pclath	equ	0xFFA
  3072                           tblptru	equ	0xFF8
  3073                           tblptrh	equ	0xFF7
  3074                           tblptrl	equ	0xFF6
  3075                           tablat	equ	0xFF5
  3076                           prodh	equ	0xFF4
  3077                           prodl	equ	0xFF3
  3078                           intcon	equ	0xFF2
  3079                           intcon2	equ	0xFF1
  3080                           intcon3	equ	0xFF0
  3081                           postinc0	equ	0xFEE
  3082                           fsr0h	equ	0xFEA
  3083                           fsr0l	equ	0xFE9
  3084                           wreg	equ	0xFE8
  3085                           postdec1	equ	0xFE5
  3086                           fsr1h	equ	0xFE2
  3087                           fsr1l	equ	0xFE1
  3088                           postinc2	equ	0xFDE
  3089                           postdec2	equ	0xFDD
  3090                           fsr2h	equ	0xFDA
  3091                           fsr2l	equ	0xFD9
  3092                           status	equ	0xFD8
  3093                           
  3094                           	psect	temp
  3095  00004F                     btemp:
  3096                           	opt stack 0
  3097  00004F                     	ds	1
  3098  0000                     int$flags	set	btemp
  3099                           tosu	equ	0xFFF
  3100                           tosh	equ	0xFFE
  3101                           tosl	equ	0xFFD
  3102                           pclatu	equ	0xFFB
  3103                           pclath	equ	0xFFA
  3104                           tblptru	equ	0xFF8
  3105                           tblptrh	equ	0xFF7
  3106                           tblptrl	equ	0xFF6
  3107                           tablat	equ	0xFF5
  3108                           prodh	equ	0xFF4
  3109                           prodl	equ	0xFF3
  3110                           intcon	equ	0xFF2
  3111                           intcon2	equ	0xFF1
  3112                           intcon3	equ	0xFF0
  3113                           postinc0	equ	0xFEE
  3114                           fsr0h	equ	0xFEA
  3115                           fsr0l	equ	0xFE9
  3116                           wreg	equ	0xFE8
  3117                           postdec1	equ	0xFE5
  3118                           fsr1h	equ	0xFE2
  3119                           fsr1l	equ	0xFE1
  3120                           postinc2	equ	0xFDE
  3121                           postdec2	equ	0xFDD
  3122                           fsr2h	equ	0xFDA
  3123                           fsr2l	equ	0xFD9
  3124                           status	equ	0xFD8


Data Sizes:
    Strings     0
    Constant    1
    Data        16
    BSS         115
    Persistent  0
    Stack       0

Auto Spaces:
    Space          Size  Autos    Used
    COMRAM           94     26      78
    BANK0           160      8      88
    BANK1           256      0       0
    BANK2           256      0       0
    BANK3           256      0       0
    BANK4           256      0       0
    BANK5           256      0       0
    BANK6           256      0       0
    BANK7           256      0       0

Pointer List with Targets:

    DHT_StateMachine	PTR FTN()void [5] size(2) Largest target is 1
		 -> RecievingData(), DHTSignalResponse(), SecondStateRequest(), FirstStateRequest(), 
		 -> Idle(), 


Critical Paths under _main in COMRAM

    _SetDutyCycle->___awdiv
    ___awdiv->___wmul

Critical Paths under _HighISR in COMRAM

    _HighISR->_RecievingData

Critical Paths under _main in BANK0

    _TurnOnLights->_SetPWM
    _SetPWM->_SetDutyCycle
    _SetDutyCycle->___awdiv

Critical Paths under _HighISR in BANK0

    None.

Critical Paths under _main in BANK1

    None.

Critical Paths under _HighISR in BANK1

    None.

Critical Paths under _main in BANK2

    None.

Critical Paths under _HighISR in BANK2

    None.

Critical Paths under _main in BANK3

    None.

Critical Paths under _HighISR in BANK3

    None.

Critical Paths under _main in BANK4

    None.

Critical Paths under _HighISR in BANK4

    None.

Critical Paths under _main in BANK5

    None.

Critical Paths under _HighISR in BANK5

    None.

Critical Paths under _main in BANK6

    None.

Critical Paths under _HighISR in BANK6

    None.

Critical Paths under _main in BANK7

    None.

Critical Paths under _HighISR in BANK7

    None.

Call Graph Tables:

 ---------------------------------------------------------------------------------
 (Depth) Function   	        Calls       Base Space   Used Autos Params    Refs
 ---------------------------------------------------------------------------------
 (0) _main                                                 0     0      0    1195
                    _InitDHT11Driver
                     _Interrupt_Init
                          _TMR0_INIT
                    _TMR0_WRITE_HIGH
                     _TMR0_WRITE_LOW
                       _TurnOnLights
 ---------------------------------------------------------------------------------
 (1) _TurnOnLights                                         0     0      0    1135
                             _SetPWM
                           _StartPWM
 ---------------------------------------------------------------------------------
 (2) _StartPWM                                             0     0      0       0
 ---------------------------------------------------------------------------------
 (2) _SetPWM                                               1     1      0    1135
                                              7 BANK0      1     1      0
                       _SetDutyCycle
                          _SetPeriod
 ---------------------------------------------------------------------------------
 (3) _SetPeriod                                            0     0      0       0
 ---------------------------------------------------------------------------------
 (3) _SetDutyCycle                                         3     3      0    1104
                                              4 BANK0      3     3      0
                            ___awdiv
                             ___wmul
 ---------------------------------------------------------------------------------
 (4) ___wmul                                               6     2      4     474
                                             16 COMRAM     6     2      4
 ---------------------------------------------------------------------------------
 (4) ___awdiv                                              8     4      4     599
                                             22 COMRAM     4     0      4
                                              0 BANK0      4     4      0
                             ___wmul (ARG)
 ---------------------------------------------------------------------------------
 (1) _TMR0_WRITE_LOW                                       1     1      0      15
                                             16 COMRAM     1     1      0
 ---------------------------------------------------------------------------------
 (1) _TMR0_WRITE_HIGH                                      1     1      0      15
                                             16 COMRAM     1     1      0
 ---------------------------------------------------------------------------------
 (1) _TMR0_INIT                                            2     2      0      30
                                             16 COMRAM     2     2      0
 ---------------------------------------------------------------------------------
 (1) _Interrupt_Init                                       0     0      0       0
                        _INIT_INTCON
                       _INIT_INTCON2
                       _INIT_INTCON3
                          _INIT_IPR1
                          _INIT_IPR2
                          _INIT_PIE1
                          _INIT_PIE2
                          _INIT_RCON
 ---------------------------------------------------------------------------------
 (2) _INIT_RCON                                            0     0      0       0
 ---------------------------------------------------------------------------------
 (2) _INIT_PIE2                                            0     0      0       0
 ---------------------------------------------------------------------------------
 (2) _INIT_PIE1                                            0     0      0       0
 ---------------------------------------------------------------------------------
 (2) _INIT_IPR2                                            0     0      0       0
 ---------------------------------------------------------------------------------
 (2) _INIT_IPR1                                            0     0      0       0
 ---------------------------------------------------------------------------------
 (2) _INIT_INTCON3                                         0     0      0       0
 ---------------------------------------------------------------------------------
 (2) _INIT_INTCON2                                         0     0      0       0
 ---------------------------------------------------------------------------------
 (2) _INIT_INTCON                                          0     0      0       0
 ---------------------------------------------------------------------------------
 (1) _InitDHT11Driver                                      0     0      0       0
                    _ConfigureTimer1
 ---------------------------------------------------------------------------------
 (2) _ConfigureTimer1                                      0     0      0       0
 ---------------------------------------------------------------------------------
 Estimated maximum stack depth 4
 ---------------------------------------------------------------------------------
 (Depth) Function   	        Calls       Base Space   Used Autos Params    Refs
 ---------------------------------------------------------------------------------
 (5) _HighISR                                             14    14      0      44
                                              2 COMRAM    14    14      0
                  _DHTSignalResponse *
                  _FirstStateRequest *
                               _Idle *
                      _RecievingData *
                 _SecondStateRequest *
                  i2_TMR0_WRITE_HIGH
                   i2_TMR0_WRITE_LOW
 ---------------------------------------------------------------------------------
 (6) i2_TMR0_WRITE_LOW                                     1     1      0      22
                                              0 COMRAM     1     1      0
 ---------------------------------------------------------------------------------
 (6) i2_TMR0_WRITE_HIGH                                    1     1      0      22
                                              0 COMRAM     1     1      0
 ---------------------------------------------------------------------------------
 (6) _SecondStateRequest                                   0     0      0       0
 ---------------------------------------------------------------------------------
 (6) _RecievingData                                        2     2      0       0
                                              0 COMRAM     2     2      0
 ---------------------------------------------------------------------------------
 (6) _Idle                                                 0     0      0       0
 ---------------------------------------------------------------------------------
 (6) _FirstStateRequest                                    0     0      0       0
 ---------------------------------------------------------------------------------
 (6) _DHTSignalResponse                                    0     0      0       0
 ---------------------------------------------------------------------------------
 Estimated maximum stack depth 6
 ---------------------------------------------------------------------------------

 Call Graph Graphs:

 _main (ROOT)
   _InitDHT11Driver
     _ConfigureTimer1
   _Interrupt_Init
     _INIT_INTCON
     _INIT_INTCON2
     _INIT_INTCON3
     _INIT_IPR1
     _INIT_IPR2
     _INIT_PIE1
     _INIT_PIE2
     _INIT_RCON
   _TMR0_INIT
   _TMR0_WRITE_HIGH
   _TMR0_WRITE_LOW
   _TurnOnLights
     _SetPWM
       _SetDutyCycle
         ___awdiv
           ___wmul (ARG)
         ___wmul
       _SetPeriod
     _StartPWM

 _HighISR (ROOT)
   _DHTSignalResponse *
   _FirstStateRequest *
   _Idle *
   _RecievingData *
   _SecondStateRequest *
   i2_TMR0_WRITE_HIGH *
   i2_TMR0_WRITE_LOW *

 Address spaces:
Name               Size   Autos  Total    Cost      Usage
BIGRAM             7FF      0       0      21        0.0%
EEDATA             100      0       0       0        0.0%
BITBANK7           100      0       0      18        0.0%
BANK7              100      0       0      19        0.0%
BITBANK6           100      0       0      16        0.0%
BANK6              100      0       0      17        0.0%
BITBANK5           100      0       0      14        0.0%
BANK5              100      0       0      15        0.0%
BITBANK4           100      0       0      12        0.0%
BANK4              100      0       0      13        0.0%
BITBANK3           100      0       0      10        0.0%
BANK3              100      0       0      11        0.0%
BITBANK2           100      0       0       8        0.0%
BANK2              100      0       0       9        0.0%
BITBANK1           100      0       0       6        0.0%
BANK1              100      0       0       7        0.0%
BITBANK0            A0      0       0       4        0.0%
BANK0               A0      8      58       5       55.0%
BITCOMRAM           5E      0       1       0        1.1%
COMRAM              5E     1A      4E       1       83.0%
BITSFR               0      0       0      40        0.0%
SFR                  0      0       0      40        0.0%
STACK                0      0       0       2        0.0%
NULL                 0      0       0       0        0.0%
ABS                  0      0      A6      20        0.0%
DATA                 0      0      A6       3        0.0%
CODE                 0      0       0       0        0.0%


Microchip Technology PIC18 Macro Assembler V1.36 build -262312587 
Symbol Table                                                                                   Sat Apr 16 23:43:40 2016

           ??_Interrupt_Init 0034                  __CFG_CP0$ON 000000                  __CFG_CP1$ON 000000  
                __CFG_CP2$ON 000000                  __CFG_CP3$ON 000000                           l90 0B36  
                __CFG_CPB$ON 000000                  __CFG_CPD$ON 000000                 ___awdiv@sign 00B1  
        ___wmul@multiplicand 0036                  __CFG_BORV$3 000000        __size_of_TurnOnLights 000C  
                __CFG_LVP$ON 000000                          l323 0AD8                          _PR2 000FCB  
                        _LSb 0007                          _MSb 0009     TMR0_WRITE_HIGH@valorHigh 0034  
                        prod 000FF3                          tosl 000FFD                          wreg 000FE8  
               __CFG_WDT$OFF 000000                         l1041 0AC8                         l1037 0AB8  
                       l1401 098A                         l1381 093C                         l1383 0946  
                       l1375 0922                         l1393 096A                         l1385 094A  
                       l1369 0910                         l1397 0976                         _ADIF 007CF6  
                       _T0IF 007F92                 ?_INIT_INTCON 0024                         i2l80 0846  
                       i2l84 085E                         i2l87 08BC                         i2l79 084A  
                       _TMR0 000FD6                         _TMR1 000FCE                         _Idle 0C9A  
               __CFG_WRT0$ON 000000                 __CFG_WRT1$ON 000000                 __CFG_WRT2$ON 000000  
               __CFG_WRT3$ON 000000                __CFG_EBTR0$ON 000000                __CFG_EBTR1$ON 000000  
              __CFG_EBTR2$ON 000000                __CFG_EBTR3$ON 000000                 __CFG_WRTB$ON 000000  
               __CFG_WRTC$ON 000000                __CFG_BOR$SOFT 000000                 __CFG_WRTD$ON 000000  
              __CFG_EBTRB$ON 000000                         _main 0B12                         _mask 001F  
                       _temp 0001                         _time 0023                         fsr0h 000FEA  
  __size_ofi2_TMR0_WRITE_LOW 0008                         fsr1h 000FE2                         fsr0l 000FE9  
                       fsr2h 000FDA                         fsr1l 000FE1                         fsr2l 000FD9  
         _IntegerTemperature 0014                         btemp 004F                         pclat 000FFA  
                       prodh 000FF4                         prodl 000FF3                         start 0016  
              __CFG_IESO$OFF 000000           __size_of_INIT_IPR1 0010           __size_of_INIT_IPR2 000E  
         __size_of_INIT_PIE1 0010           __size_of_INIT_PIE2 000E              __end_of_HighISR 08F8  
         __size_of_INIT_RCON 0004                 _TurnOnLights 0C30                 ___param_bank 000010  
              __CFG_PLLDIV$1 000000                        ?_Idle 0024             ?_TMR0_WRITE_HIGH 0024  
                      ?_main 0024              __end_of___awdiv 0994                        _CCPR1 000FBE  
                      _T0CON 000FD5              ___awdiv@divisor 003C                        _T1CON 000FCD  
                      _T2CON 000FCA                        _LATB3 007C53                        _LATC2 007C5A  
                      _T3CON 000FB1                ?_INIT_INTCON2 0024                ?_INIT_INTCON3 0024  
                      _T1RUN 007E6E              ___awdiv@counter 00B0                        _TMR0H 000FD7  
                      _TMR1H 000FCF                        _TMR0L 000FD6                        _TMR1L 000FCE  
              __CFG_USBDIV$1 000000                __CFG_PWRT$OFF 000000           __size_of_TMR0_INIT 0020  
             __CFG_FCMEN$OFF 000000                        _frame 001E                        _times 0060  
                      _state 0022               __pbitbssCOMRAM 0270                        pclath 000FFA  
                      tablat 000FF5                        status 000FD8              _ConfigureTimer1 0A98  
             __CFG_MCLRE$OFF 000000                 __end_of_Idle 0C9C              __initialization 0A50  
   __size_of_InitDHT11Driver 000A                 __end_of_main 0B38              SetPWM@dutycycle 00B7  
                     ??_Idle 0024                       ??_main 003E               ??_INIT_INTCON2 0034  
             ??_INIT_INTCON3 0034                __activetblptr 000002            __end_of_INIT_IPR1 0C06  
          __end_of_INIT_IPR2 0C22            __end_of_INIT_PIE1 0BF6            __end_of_INIT_PIE2 0C14  
          __end_of_INIT_RCON 0C9A              __CFG_CCP2MX$OFF 000000             __end_of_StartPWM 0C70  
                     _CCP1IE 007CEA                       _CCP1IF 007CF2                       _CCPR1H 000FBF  
                     _CCPR1L 000FBE                       _CCPR2L 000FBB             ___awdiv@dividend 003A  
__size_of_SecondStateRequest 000C                       _INT2IF 007F81                       i2l1323 087C  
                     i2l1331 088E                       i2l1325 0880                       _OSCCON 000FD3  
                  ??_HighISR 0026                       _TMR0IF 007F92                       _TMR1CS 007E69  
                     _TMR0ON 007EAF                       _TMR1ON 007E68                       __SPBRG 0801  
                     _Door_f 0270                       _SetPWM 0BA0               __CFG_XINST$OFF 000000  
     __size_of_RecievingData 0054            __end_of_TMR0_INIT 0BA0                       ___wmul 0B38  
                  ??___awdiv 003E               __CFG_STVREN$ON 000000           __size_of_SetPeriod 0006  
                     _counts 000D                       clear_0 0A56                       clear_1 0A64  
           ___awdiv@quotient 00B2      __size_of_TMR0_WRITE_LOW 0008                 __pdataCOMRAM 003E  
               __mediumconst 0000                       tblptrh 000FF7                       tblptrl 000FF6  
                     tblptru 000FF8                ?_SetDutyCycle 0024      __end_of_ConfigureTimer1 0ADE  
                 __accesstop 0060      __end_of__initialization 0A8A              __CFG_PBADEN$OFF 000000  
           i2_TMR0_WRITE_LOW 0C80         __size_of_INIT_INTCON 000C                ___rparam_used 000001  
             __pcstackCOMRAM 0024                 _f_frameready 0019            ??_InitDHT11Driver 0034  
              _RecievingData 09FC               ??_SetDutyCycle 00B4            __end_of_SetPeriod 0C96  
                 __pbssBANK0 0060         __end_of_INIT_INTCON2 0C30         __end_of_INIT_INTCON3 0C5E  
            _DecimalHumidity 0011                      ?_SetPWM 0024                      ?___wmul 0034  
                  ?_StartPWM 0024                      _CCP1CON 000FBD                      _CCP2CON 000FBA  
          _FirstStateRequest 0ADE                      _T1OSCEN 007E6B                      _INTEDG2 007F8C  
             ?_RecievingData 0024           ?_FirstStateRequest 0024                      i2u31_48 0868  
                    i2u33_48 08A8          ??_FirstStateRequest 0024              __CFG_VREGEN$OFF 000000  
           ?_ConfigureTimer1 0024                      _HighISR 0008                      _Light_f 0271  
                    _Night_f 0272                      __Hparam 0000                      __Lparam 0000  
                 _firstvalue 001C              __size_of_SetPWM 001C                      ___awdiv 08F8  
                 ??_StartPWM 0034              __size_of___wmul 0026                 __psmallconst 0800  
  __end_of_FirstStateRequest 0B12                      __pcinit 0A50               _TMR0_WRITE_LOW 0C70  
                    __ramtop 0800                      __ptext0 0B12                      __ptext1 0C30  
                    __ptext2 0C68                      __ptext3 0BA0                      __ptext4 0C90  
                    __ptext5 0994                      __ptext6 0B38                      __ptext7 08F8  
                    __ptext8 0C70                      __ptext9 0C78                      _endbyte 004B  
                  _T1CONbits 000FCD                      _counter 0018      __size_of_Interrupt_Init 0022  
   __size_of_TMR0_WRITE_HIGH 0008               __pintcode_body 0804       TMR0_WRITE_LOW@valorLow 0034  
       end_of_initialization 0A8A                    _INIT_IPR1 0BF6                    _INIT_IPR2 0C14  
                  _INIT_PIE1 0BE6                    _INIT_PIE2 0C06                    _INIT_RCON 0C96  
              __Lmediumconst 0000                      int_func 0804         __end_of_SetDutyCycle 09FC  
                    postdec1 000FE5                      postdec2 000FDD                      postinc0 000FEE  
                    postinc2 000FDE       __end_of_TMR0_WRITE_LOW 0C78                    _TMR0_INIT 0B80  
            ??_RecievingData 0024     __end_ofi2_TMR0_WRITE_LOW 0C88                    _TRISBbits 000F93  
                  _TRISCbits 000F94   __end_of_SecondStateRequest 0C54            i2_TMR0_WRITE_HIGH 0C88  
           _firstvaluespaces 001D        __size_of_INIT_INTCON2 000E        __size_of_INIT_INTCON3 000A  
                 ?_INIT_IPR1 0024                   ?_INIT_IPR2 0024                   ?_INIT_PIE1 0024  
                 ?_INIT_PIE2 0024                   ?_INIT_RCON 0024           ?i2_TMR0_WRITE_HIGH 0024  
        ??i2_TMR0_WRITE_HIGH 0024              _InitDHT11Driver 0C5E               __end_of__SPBRG 0802  
             __end_of_SetPWM 0BBC              ?_TMR0_WRITE_LOW 0024   __size_of_FirstStateRequest 0034  
             __end_of___wmul 0B5E                   ?_TMR0_INIT 0024             _DHT_StateMachine 003E  
              __pidataCOMRAM 0BD6                 _INIT_INTCON2 0C22                 _INIT_INTCON3 0C54  
          _secondvaluespaces 0021          start_initialization 0A50    __end_ofi2_TMR0_WRITE_HIGH 0C90  
              ??_INIT_INTCON 0034            ??_TMR0_WRITE_HIGH 0034                    _SetPeriod 0C90  
                   ??_SetPWM 003E                ?_TurnOnLights 0024                     ??___wmul 0038  
           __CFG_LPT1OSC$OFF 000000                TMR0_INIT@T0PS 0035            __size_of_StartPWM 0008  
              TMR0_INIT@bits 0034               _Interrupt_Init 0B5E                  __pbssCOMRAM 0001  
              __pcstackBANK0 00B0            _DHTSignalResponse 0BBC                  ??_INIT_IPR1 0034  
                ??_INIT_IPR2 0034                  ??_INIT_PIE1 0034                  ??_INIT_PIE2 0034  
         ?_DHTSignalResponse 0024                  ??_INIT_RCON 0034      __end_of_InitDHT11Driver 0C68  
                   ?_HighISR 0024        __size_of_SetDutyCycle 0068                   ?_SetPeriod 0024  
        ??_DHTSignalResponse 0024               ??_TurnOnLights 003E          __end_of_INIT_INTCON 0C48  
                  __pintcode 0008                     ?___awdiv 003A                  ??_TMR0_INIT 0034  
     __end_of_Interrupt_Init 0B80           _DecimalTemperature 0012                  __smallconst 0800  
  __end_of_DHTSignalResponse 0BD6   __size_ofi2_TMR0_WRITE_HIGH 0008                    _firstbyte 0048  
               _SetDutyCycle 0994                    _bytecount 0017               ___wmul@product 0038  
                   _IPR1bits 000F9F                     _IPR2bits 000FA2                     _PIE1bits 000F9D  
                   _PIE2bits 000FA0                     _RCONbits 000FD0     __size_of_ConfigureTimer1 0046  
           __CFG_WDTPS$32768 000000                    _prescaler 004C              ?_Interrupt_Init 0024  
          ___wmul@multiplier 0034                     _PWMValue 000B   i2TMR0_WRITE_HIGH@valorHigh 0024  
                  _splitbyte 004D            ?i2_TMR0_WRITE_LOW 0024           ??i2_TMR0_WRITE_LOW 0024  
                _INTCON2bits 000FF1                  _INTCON3bits 000FF0                    copy_data0 0A7E  
                _INIT_INTCON 0C3C             ?_InitDHT11Driver 0024             __size_of_HighISR 08F0  
                ??_SetPeriod 0034           _SecondStateRequest 0C48             ??_TMR0_WRITE_LOW 0034  
                   __Hrparam 0000                     __Lrparam 0000                     _StartPWM 0C68  
        ?_SecondStateRequest 0024             __size_of___awdiv 009C        __end_of_RecievingData 0A50  
 __size_of_DHTSignalResponse 001A     i2TMR0_WRITE_LOW@valorLow 0024              _TMR0_WRITE_HIGH 0C78  
       __end_of_TurnOnLights 0C3C                     _f_slave1 001A                     _f_slave2 001B  
               _TimerCounter 0015                     __ptext10 0B80                     __ptext11 0B5E  
                   __ptext20 0C5E                     __ptext12 0C96                     __ptext21 0A98  
                   __ptext13 0C06                     __ptext30 0000                     __ptext14 0BE6  
                   __ptext23 0C80                     __ptext15 0C14                     __ptext24 0C88  
                   __ptext16 0BF6                     __ptext25 09FC                     __ptext17 0C54  
                   __ptext26 0BBC                     __ptext18 0C22                     __ptext27 0ADE  
                   __ptext19 0C3C                     __ptext28 0C9A                     __ptext29 0C48  
                   _bitcount 0016         ??_SecondStateRequest 0024                __size_of_Idle 0002  
              __size_of_main 0026                     _lasttime 000F              _IntegerHumidity 0013  
                   int$flags 004F            ??_ConfigureTimer1 0034        __CFG_CPUDIV$OSC1_PLL2 000000  
                 _INTCONbits 000FF2                  _secondvalue 0020                     intlevel2 0000  
    __end_of_TMR0_WRITE_HIGH 0C80        SetDutyCycle@dutycycle 00B6          __CFG_FOSC$INTOSC_HS 000000  
