

Microchip Technology PIC18 LITE Macro Assembler V1.36 build -262312587 
                                                                                               Thu May 05 19:30:28 2016

Microchip Technology Omniscient Code Generator v1.36 (Free mode) build 201601150325
     1                           	processor	18F2550
     2                           	fnconf	rparam,??,?,0
     3                           	opt	pw 120
     4                           	opt	lm
     5                           	psect	idataCOMRAM,global,class=CODE,delta=1
     6                           	psect	idataBANK0,global,class=CODE,delta=1
     7                           	psect	smallconst,global,reloc=2,class=SMALLCONST,delta=1
     8                           	psect	cinit,global,reloc=2,class=CODE,delta=1
     9                           	psect	bitbssCOMRAM,global,bit,class=COMRAM,space=1,delta=1
    10                           	psect	bssCOMRAM,global,class=COMRAM,space=1,delta=1
    11                           	psect	dataCOMRAM,global,class=COMRAM,space=1,delta=1
    12                           	psect	bssBANK0,global,class=BANK0,space=1,delta=1
    13                           	psect	dataBANK0,global,class=BANK0,space=1,delta=1
    14                           	psect	cstackBANK0,global,class=BANK0,space=1,delta=1
    15                           	psect	cstackCOMRAM,global,class=COMRAM,space=1,delta=1
    16                           	psect	text0,global,reloc=2,class=CODE,delta=1
    17                           	psect	text1,global,reloc=2,class=CODE,delta=1
    18                           	psect	text2,global,reloc=2,class=CODE,delta=1
    19                           	psect	text3,global,reloc=2,class=CODE,delta=1
    20                           	psect	text4,global,reloc=2,class=CODE,delta=1
    21                           	psect	text5,global,reloc=2,class=CODE,delta=1
    22                           	psect	text6,global,reloc=2,class=CODE,delta=1
    23                           	psect	text7,global,reloc=2,class=CODE,delta=1
    24                           	psect	text8,global,reloc=2,class=CODE,delta=1
    25                           	psect	text9,global,reloc=2,class=CODE,delta=1
    26                           	psect	text10,global,reloc=2,class=CODE,delta=1
    27                           	psect	text11,global,reloc=2,class=CODE,delta=1
    28                           	psect	text12,global,reloc=2,class=CODE,delta=1
    29                           	psect	text13,global,reloc=2,class=CODE,delta=1
    30                           	psect	text14,global,reloc=2,class=CODE,delta=1
    31                           	psect	text15,global,reloc=2,class=CODE,delta=1
    32                           	psect	text16,global,reloc=2,class=CODE,delta=1
    33                           	psect	text17,global,reloc=2,class=CODE,delta=1
    34                           	psect	text18,global,reloc=2,class=CODE,delta=1
    35                           	psect	text19,global,reloc=2,class=CODE,delta=1
    36                           	psect	text20,global,reloc=2,class=CODE,delta=1
    37                           	psect	text21,global,reloc=2,class=CODE,delta=1
    38                           	psect	text22,global,reloc=2,class=CODE,delta=1
    39                           	psect	text23,global,reloc=2,class=CODE,delta=1
    40                           	psect	text24,global,reloc=2,class=CODE,delta=1
    41                           	psect	text25,global,reloc=2,class=CODE,delta=1
    42                           	psect	intcode,global,reloc=2,class=CODE,delta=1
    43                           	psect	intcode_body,global,reloc=2,class=CODE,delta=1
    44                           	psect	text27,global,reloc=2,class=CODE,delta=1
    45                           	psect	text28,global,reloc=2,class=CODE,delta=1
    46                           	psect	text29,global,reloc=2,class=CODE,delta=1
    47                           	psect	text30,global,reloc=2,class=CODE,delta=1
    48                           	psect	text31,global,reloc=2,class=CODE,delta=1
    49                           	psect	text32,global,reloc=2,class=CODE,delta=1
    50                           	psect	text33,global,reloc=2,class=CODE,delta=1
    51                           	psect	text34,global,reloc=2,class=CODE,delta=1
    52                           	psect	text35,global,reloc=2,class=CODE,delta=1
    53                           	psect	text36,global,reloc=2,class=CODE,delta=1
    54                           	psect	text37,global,reloc=2,class=CODE,delta=1
    55                           	psect	text38,global,reloc=2,class=CODE,delta=1
    56                           	psect	text39,global,reloc=2,class=CODE,delta=1
    57                           	psect	text40,global,reloc=2,class=CODE,delta=1
    58                           	psect	intsave_regs,global,class=BIGRAM,space=1,delta=1
    59                           	psect	text41,global,reloc=2,class=CODE,delta=1
    60                           	psect	rparam,global,class=COMRAM,space=1,delta=1
    61                           	psect	temp,global,ovrld,common,class=COMRAM,space=1,delta=1
    62  0000                     
    63                           	psect	idataCOMRAM
    64  0011F6                     __pidataCOMRAM:
    65                           	opt stack 0
    66                           
    67                           ;initializer for _lightperday
    68  0011F6  059B               	dw	1435
    69                           
    70                           ;initializer for _totaldaytime
    71  0011F8  05A0               	dw	1440
    72                           
    73                           ;initializer for _MinLightValue
    74  0011FA  28                 	db	40
    75                           
    76                           ;initializer for _endbyte
    77  0011FB  45                 	db	69
    78                           
    79                           ;initializer for _fan
    80  0011FC  46                 	db	70
    81                           
    82                           ;initializer for _light
    83  0011FD  4C                 	db	76
    84                           
    85                           ;initializer for _prescaler
    86  0011FE  04                 	db	4
    87                           
    88                           	psect	idataBANK0
    89  001166                     __pidataBANK0:
    90                           	opt stack 0
    91                           
    92                           ;initializer for _DHT_StateMachine
    93  001166  30                 	db	low _Idle
    94  001167  12                 	db	high _Idle
    95  001168  C4                 	db	low _FirstStateRequest
    96  001169  0F                 	db	high _FirstStateRequest
    97  00116A  B8                 	db	low _SecondStateRequest
    98  00116B  11                 	db	high _SecondStateRequest
    99  00116C  CC                 	db	low _DHTSignalResponse
   100  00116D  10                 	db	high _DHTSignalResponse
   101  00116E  2A                 	db	low _RecievingData
   102  00116F  0F                 	db	high _RecievingData
   103                           
   104                           ;initializer for _firstbyte
   105  001170  4F                 	db	79
   106  001171  26                 	db	38
   107  001172  4E                 	db	78
   108  001173  40                 	db	64
   109  001174  57                 	db	87
   110                           
   111                           	psect	smallconst
   112  000800                     __psmallconst:
   113                           	opt stack 0
   114  000800  00                 	db	0
   115  000801                     SerialCOM@_SPBRG:
   116                           	opt stack 0
   117  000801  19                 	db	25
   118  000802                     __end_ofSerialCOM@_SPBRG:
   119                           	opt stack 0
   120  000802  19                 	db	25
   121  000803                     __end_of__SPBRG:
   122                           	opt stack 0
   123  0000                     _ADRES	set	4035
   124  0000                     _CCPR1	set	4030
   125  0000                     _TMR0	set	4054
   126  0000                     _TMR1	set	4046
   127  0000                     _ADCON0	set	4034
   128  0000                     _ADCON0bits	set	4034
   129  0000                     _ADCON1	set	4033
   130  0000                     _ADCON2bits	set	4032
   131  0000                     _CCP1CON	set	4029
   132  0000                     _CCP2CON	set	4026
   133  0000                     _CCPR1H	set	4031
   134  0000                     _CCPR1L	set	4030
   135  0000                     _CCPR2L	set	4027
   136  0000                     _INTCON2bits	set	4081
   137  0000                     _INTCON3bits	set	4080
   138  0000                     _INTCONbits	set	4082
   139  0000                     _IPR1bits	set	3999
   140  0000                     _IPR2bits	set	4002
   141  0000                     _OSCCON	set	4051
   142  0000                     _PIE1bits	set	3997
   143  0000                     _PIE2bits	set	4000
   144  0000                     _PR2	set	4043
   145  0000                     _RCONbits	set	4048
   146  0000                     _RCREG	set	4014
   147  0000                     _SPBRG	set	4015
   148  0000                     _T0CON	set	4053
   149  0000                     _T1CON	set	4045
   150  0000                     _T1CONbits	set	4045
   151  0000                     _T2CON	set	4042
   152  0000                     _T3CON	set	4017
   153  0000                     _TMR0H	set	4055
   154  0000                     _TMR0L	set	4054
   155  0000                     _TMR1H	set	4047
   156  0000                     _TMR1L	set	4046
   157  0000                     _TRISAbits	set	3986
   158  0000                     _TRISBbits	set	3987
   159  0000                     _TRISCbits	set	3988
   160  0000                     _TXREG	set	4013
   161  0000                     _ADDEN	set	32091
   162  0000                     _ADIF	set	31990
   163  0000                     _BRG16	set	32195
   164  0000                     _BRGH	set	32098
   165  0000                     _CCP1IE	set	31978
   166  0000                     _CCP1IF	set	31986
   167  0000                     _CREN	set	32092
   168  0000                     _CSRC	set	32103
   169  0000                     _INT2IF	set	32641
   170  0000                     _INTEDG2	set	32652
   171  0000                     _LATA3	set	31819
   172  0000                     _LATB3	set	31827
   173  0000                     _LATC2	set	31834
   174  0000                     _RCIE	set	31981
   175  0000                     _RCIF	set	31989
   176  0000                     _RX9	set	32094
   177  0000                     _SENDB	set	32099
   178  0000                     _SPEN	set	32095
   179  0000                     _SREN	set	32093
   180  0000                     _SYNC	set	32100
   181  0000                     _T0IF	set	32658
   182  0000                     _T1OSCEN	set	32363
   183  0000                     _T1RUN	set	32366
   184  0000                     _TMR0IF	set	32658
   185  0000                     _TMR0ON	set	32431
   186  0000                     _TMR1CS	set	32361
   187  0000                     _TMR1ON	set	32360
   188  0000                     _TX9	set	32102
   189  0000                     _TXEN	set	32101
   190                           
   191                           ; #config settings
   192  000803  00                 	db	0	; dummy byte at the end
   193  0000                     
   194                           	psect	cinit
   195  000E58                     __pcinit:
   196                           	opt stack 0
   197  000E58                     start_initialization:
   198                           	opt stack 0
   199  000E58                     __initialization:
   200                           	opt stack 0
   201                           
   202                           ; Clear objects allocated to BANK0 (109 bytes)
   203  000E58  EE00  F060         	lfsr	0,__pbssBANK0
   204  000E5C  0E6D               	movlw	109
   205  000E5E                     clear_0:
   206  000E5E  6AEE               	clrf	postinc0,c
   207  000E60  06E8               	decf	wreg,f,c
   208  000E62  E1FD               	bnz	clear_0
   209                           
   210                           ; Clear objects allocated to BITCOMRAM (2 bytes)
   211  000E64  6A3B               	clrf	((__pbitbssCOMRAM/(0+8)+1))& (0+255),c
   212  000E66  6A3A               	clrf	(__pbitbssCOMRAM/(0+8))& (0+255),c
   213                           
   214                           ; Clear objects allocated to COMRAM (23 bytes)
   215  000E68  EE00  F023         	lfsr	0,__pbssCOMRAM
   216  000E6C  0E17               	movlw	23
   217  000E6E                     clear_1:
   218  000E6E  6AEE               	clrf	postinc0,c
   219  000E70  06E8               	decf	wreg,f,c
   220  000E72  E1FD               	bnz	clear_1
   221                           
   222                           ; Initialize objects allocated to BANK0 (15 bytes)
   223                           ; load TBLPTR registers with __pidataBANK0
   224  000E74  0E66               	movlw	low __pidataBANK0
   225  000E76  6EF6               	movwf	tblptrl,c
   226  000E78  0E11               	movlw	high __pidataBANK0
   227  000E7A  6EF7               	movwf	tblptrh,c
   228  000E7C  0E00               	movlw	low (__pidataBANK0 shr (0+16))
   229  000E7E  6EF8               	movwf	tblptru,c
   230  000E80  EE00  F0E7         	lfsr	0,__pdataBANK0
   231  000E84  EE10 F00F          	lfsr	1,15
   232  000E88                     copy_data0:
   233  000E88  0009               	tblrd		*+
   234  000E8A  CFF5 FFEE          	movff	tablat,postinc0
   235  000E8E  50E5               	movf	postdec1,w,c
   236  000E90  50E1               	movf	fsr1l,w,c
   237  000E92  E1FA               	bnz	copy_data0
   238                           
   239                           ; Initialize objects allocated to COMRAM (9 bytes)
   240                           ; load TBLPTR registers with __pidataCOMRAM
   241  000E94  0EF6               	movlw	low __pidataCOMRAM
   242  000E96  6EF6               	movwf	tblptrl,c
   243  000E98  0E11               	movlw	high __pidataCOMRAM
   244  000E9A  6EF7               	movwf	tblptrh,c
   245  000E9C  0E00               	movlw	low (__pidataCOMRAM shr (0+16))
   246  000E9E  6EF8               	movwf	tblptru,c
   247  000EA0  EE00  F03C         	lfsr	0,__pdataCOMRAM
   248  000EA4  EE10 F009          	lfsr	1,9
   249  000EA8                     copy_data1:
   250  000EA8  0009               	tblrd		*+
   251  000EAA  CFF5 FFEE          	movff	tablat,postinc0
   252  000EAE  50E5               	movf	postdec1,w,c
   253  000EB0  50E1               	movf	fsr1l,w,c
   254  000EB2  E1FA               	bnz	copy_data1
   255  000EB4                     end_of_initialization:
   256                           	opt stack 0
   257  000EB4                     __end_of__initialization:
   258                           	opt stack 0
   259  000EB4  9045               	bcf	int$flags,0,c	;clear compiler interrupt flag (level 1)
   260  000EB6  9245               	bcf	int$flags,1,c	;clear compiler interrupt flag (level 2)
   261  000EB8  0E00               	movlw	low (__Lmediumconst shr (0+16))
   262  000EBA  6EF8               	movwf	tblptru,c
   263  000EBC  0100               	movlb	0
   264  000EBE  EF62  F006         	goto	_main	;jump to C main() function
   265                           tblptru	equ	0xFF8
   266                           tblptrh	equ	0xFF7
   267                           tblptrl	equ	0xFF6
   268                           tablat	equ	0xFF5
   269                           postinc0	equ	0xFEE
   270                           wreg	equ	0xFE8
   271                           postdec1	equ	0xFE5
   272                           fsr1l	equ	0xFE1
   273                           
   274                           	psect	bitbssCOMRAM
   275  0001D0                     __pbitbssCOMRAM:
   276                           	opt stack 0
   277  0001D0                     _Door_f:
   278                           	opt stack 0
   279  0001D0                     	ds	1
   280  0001D1                     _Light_f:
   281                           	opt stack 0
   282  0001D1                     	ds	1
   283  0001D2                     _Night_f:
   284                           	opt stack 0
   285  0001D2                     	ds	1
   286  0001D3                     _PWM:
   287                           	opt stack 0
   288  0001D3                     	ds	1
   289  0001D4                     _f_SSPReady:
   290                           	opt stack 0
   291  0001D4                     	ds	1
   292  0001D5                     _f_Send2Bytes:
   293                           	opt stack 0
   294  0001D5                     	ds	1
   295  0001D6                     _f_SendByte:
   296                           	opt stack 0
   297  0001D6                     	ds	1
   298  0001D7                     _lightstate:
   299                           	opt stack 0
   300  0001D7                     	ds	1
   301  0001D8                     _lightstate_f:
   302                           	opt stack 0
   303  0001D8                     	ds	1
   304                           tblptru	equ	0xFF8
   305                           tblptrh	equ	0xFF7
   306                           tblptrl	equ	0xFF6
   307                           tablat	equ	0xFF5
   308                           postinc0	equ	0xFEE
   309                           wreg	equ	0xFE8
   310                           postdec1	equ	0xFE5
   311                           fsr1l	equ	0xFE1
   312                           
   313                           	psect	bssCOMRAM
   314  000023                     __pbssCOMRAM:
   315                           	opt stack 0
   316  000023                     _PWMValue:
   317                           	opt stack 0
   318  000023                     	ds	2
   319  000025                     _actualtime:
   320                           	opt stack 0
   321  000025                     	ds	2
   322  000027                     _DecimalHumidity:
   323                           	opt stack 0
   324  000027                     	ds	1
   325  000028                     _DecimalTemperature:
   326                           	opt stack 0
   327  000028                     	ds	1
   328  000029                     _IntegerHumidity:
   329                           	opt stack 0
   330  000029                     	ds	1
   331  00002A                     _IntegerTemperature:
   332                           	opt stack 0
   333  00002A                     	ds	1
   334  00002B                     _TimerCounter:
   335                           	opt stack 0
   336  00002B                     	ds	1
   337  00002C                     _TimerUser:
   338                           	opt stack 0
   339  00002C                     	ds	1
   340  00002D                     _actualhumidity:
   341                           	opt stack 0
   342  00002D                     	ds	1
   343  00002E                     _actualtemperature:
   344                           	opt stack 0
   345  00002E                     	ds	1
   346  00002F                     _bitcount:
   347                           	opt stack 0
   348  00002F                     	ds	1
   349  000030                     _bytecount:
   350                           	opt stack 0
   351  000030                     	ds	1
   352  000031                     _counter:
   353                           	opt stack 0
   354  000031                     	ds	1
   355  000032                     _f_frameready:
   356                           	opt stack 0
   357  000032                     	ds	1
   358  000033                     _frame:
   359                           	opt stack 0
   360  000033                     	ds	1
   361  000034                     _mask:
   362                           	opt stack 0
   363  000034                     	ds	1
   364  000035                     _optimalhumidity:
   365                           	opt stack 0
   366  000035                     	ds	1
   367  000036                     _optimaltemperature:
   368                           	opt stack 0
   369  000036                     	ds	1
   370  000037                     _serialcount:
   371                           	opt stack 0
   372  000037                     	ds	1
   373  000038                     _state:
   374                           	opt stack 0
   375  000038                     	ds	1
   376  000039                     _time:
   377                           	opt stack 0
   378  000039                     	ds	1
   379                           tblptru	equ	0xFF8
   380                           tblptrh	equ	0xFF7
   381                           tblptrl	equ	0xFF6
   382                           tablat	equ	0xFF5
   383                           postinc0	equ	0xFEE
   384                           wreg	equ	0xFE8
   385                           postdec1	equ	0xFE5
   386                           fsr1l	equ	0xFE1
   387                           
   388                           	psect	dataCOMRAM
   389  00003C                     __pdataCOMRAM:
   390                           	opt stack 0
   391  00003C                     _lightperday:
   392                           	opt stack 0
   393  00003C                     	ds	2
   394  00003E                     _totaldaytime:
   395                           	opt stack 0
   396  00003E                     	ds	2
   397  000040                     _MinLightValue:
   398                           	opt stack 0
   399  000040                     	ds	1
   400  000041                     _endbyte:
   401                           	opt stack 0
   402  000041                     	ds	1
   403  000042                     _fan:
   404                           	opt stack 0
   405  000042                     	ds	1
   406  000043                     _light:
   407                           	opt stack 0
   408  000043                     	ds	1
   409  000044                     _prescaler:
   410                           	opt stack 0
   411  000044                     	ds	1
   412                           tblptru	equ	0xFF8
   413                           tblptrh	equ	0xFF7
   414                           tblptrl	equ	0xFF6
   415                           tablat	equ	0xFF5
   416                           postinc0	equ	0xFEE
   417                           wreg	equ	0xFE8
   418                           postdec1	equ	0xFE5
   419                           fsr1l	equ	0xFE1
   420                           
   421                           	psect	bssBANK0
   422  000060                     __pbssBANK0:
   423                           	opt stack 0
   424  000060                     _times:
   425                           	opt stack 0
   426  000060                     	ds	80
   427  0000B0                     _LSb:
   428                           	opt stack 0
   429  0000B0                     	ds	2
   430  0000B2                     _LightValue:
   431                           	opt stack 0
   432  0000B2                     	ds	2
   433  0000B4                     _MSb:
   434                           	opt stack 0
   435  0000B4                     	ds	2
   436  0000B6                     _counts:
   437                           	opt stack 0
   438  0000B6                     	ds	2
   439  0000B8                     _lasttime:
   440                           	opt stack 0
   441  0000B8                     	ds	2
   442  0000BA                     _lightcounter:
   443                           	opt stack 0
   444  0000BA                     	ds	2
   445  0000BC                     _timetostartlight:
   446                           	opt stack 0
   447  0000BC                     	ds	2
   448  0000BE                     _RecievedData:
   449                           	opt stack 0
   450  0000BE                     	ds	15
   451                           tblptru	equ	0xFF8
   452                           tblptrh	equ	0xFF7
   453                           tblptrl	equ	0xFF6
   454                           tablat	equ	0xFF5
   455                           postinc0	equ	0xFEE
   456                           wreg	equ	0xFE8
   457                           postdec1	equ	0xFE5
   458                           fsr1l	equ	0xFE1
   459                           
   460                           	psect	dataBANK0
   461  0000E7                     __pdataBANK0:
   462                           	opt stack 0
   463  0000E7                     _DHT_StateMachine:
   464                           	opt stack 0
   465  0000E7                     	ds	10
   466  0000F1                     _firstbyte:
   467                           	opt stack 0
   468  0000F1                     	ds	5
   469                           tblptru	equ	0xFF8
   470                           tblptrh	equ	0xFF7
   471                           tblptrl	equ	0xFF6
   472                           tablat	equ	0xFF5
   473                           postinc0	equ	0xFEE
   474                           wreg	equ	0xFE8
   475                           postdec1	equ	0xFE5
   476                           fsr1l	equ	0xFE1
   477                           
   478                           	psect	cstackBANK0
   479  0000CD                     __pcstackBANK0:
   480                           	opt stack 0
   481  0000CD                     ?___wmul:
   482                           	opt stack 0
   483  0000CD                     TMR0_INIT@bits:
   484                           	opt stack 0
   485  0000CD                     TMR0_WRITE_HIGH@valorHigh:
   486                           	opt stack 0
   487  0000CD                     TMR0_WRITE_LOW@valorLow:
   488                           	opt stack 0
   489  0000CD                     ___wmul@multiplier:
   490                           	opt stack 0
   491                           
   492                           ; 2 bytes @ 0x0
   493  0000CD                     	ds	1
   494  0000CE                     TMR0_INIT@T0PS:
   495                           	opt stack 0
   496                           
   497                           ; 1 bytes @ 0x1
   498  0000CE                     	ds	1
   499  0000CF                     ___wmul@multiplicand:
   500                           	opt stack 0
   501                           
   502                           ; 2 bytes @ 0x2
   503  0000CF                     	ds	2
   504  0000D1                     ___wmul@product:
   505                           	opt stack 0
   506                           
   507                           ; 2 bytes @ 0x4
   508  0000D1                     	ds	2
   509  0000D3                     ?___awdiv:
   510                           	opt stack 0
   511  0000D3                     ___awdiv@dividend:
   512                           	opt stack 0
   513                           
   514                           ; 2 bytes @ 0x6
   515  0000D3                     	ds	2
   516  0000D5                     ___awdiv@divisor:
   517                           	opt stack 0
   518                           
   519                           ; 2 bytes @ 0x8
   520  0000D5                     	ds	2
   521  0000D7                     ___awdiv@counter:
   522                           	opt stack 0
   523                           
   524                           ; 1 bytes @ 0xA
   525  0000D7                     	ds	1
   526  0000D8                     ___awdiv@sign:
   527                           	opt stack 0
   528                           
   529                           ; 1 bytes @ 0xB
   530  0000D8                     	ds	1
   531  0000D9                     ___awdiv@quotient:
   532                           	opt stack 0
   533                           
   534                           ; 2 bytes @ 0xC
   535  0000D9                     	ds	2
   536  0000DB                     ??_SetDutyCycle:
   537                           
   538                           ; 1 bytes @ 0xE
   539  0000DB                     	ds	2
   540  0000DD                     SetDutyCycle@dutycycle:
   541                           	opt stack 0
   542                           
   543                           ; 1 bytes @ 0x10
   544  0000DD                     	ds	1
   545  0000DE                     SetPWM@dutycycle:
   546                           	opt stack 0
   547                           
   548                           ; 1 bytes @ 0x11
   549  0000DE                     	ds	1
   550  0000DF                     ReadFrame@pointer:
   551                           	opt stack 0
   552                           
   553                           ; 2 bytes @ 0x12
   554  0000DF                     	ds	2
   555  0000E1                     ??_ReadFrame:
   556                           
   557                           ; 1 bytes @ 0x14
   558  0000E1                     	ds	4
   559  0000E5                     ??_main:
   560                           
   561                           ; 1 bytes @ 0x18
   562  0000E5                     	ds	2
   563                           tblptru	equ	0xFF8
   564                           tblptrh	equ	0xFF7
   565                           tblptrl	equ	0xFF6
   566                           tablat	equ	0xFF5
   567                           postinc0	equ	0xFEE
   568                           wreg	equ	0xFE8
   569                           postdec1	equ	0xFE5
   570                           fsr1l	equ	0xFE1
   571                           
   572                           	psect	cstackCOMRAM
   573  000001                     __pcstackCOMRAM:
   574                           	opt stack 0
   575  000001                     ??_RecievingData:
   576  000001                     ?i2___wmul:
   577                           	opt stack 0
   578  000001                     i2TMR0_WRITE_HIGH@valorHigh:
   579                           	opt stack 0
   580  000001                     i2TMR0_WRITE_LOW@valorLow:
   581                           	opt stack 0
   582  000001                     i2___wmul@multiplier:
   583                           	opt stack 0
   584                           
   585                           ; 2 bytes @ 0x0
   586  000001                     	ds	2
   587  000003                     i2___wmul@multiplicand:
   588                           	opt stack 0
   589                           
   590                           ; 2 bytes @ 0x2
   591  000003                     	ds	2
   592  000005                     i2___wmul@product:
   593                           	opt stack 0
   594                           
   595                           ; 2 bytes @ 0x4
   596  000005                     	ds	2
   597  000007                     ?i2___awdiv:
   598                           	opt stack 0
   599  000007                     i2___awdiv@dividend:
   600                           	opt stack 0
   601                           
   602                           ; 2 bytes @ 0x6
   603  000007                     	ds	2
   604  000009                     i2___awdiv@divisor:
   605                           	opt stack 0
   606                           
   607                           ; 2 bytes @ 0x8
   608  000009                     	ds	2
   609  00000B                     i2___awdiv@counter:
   610                           	opt stack 0
   611                           
   612                           ; 1 bytes @ 0xA
   613  00000B                     	ds	1
   614  00000C                     i2___awdiv@sign:
   615                           	opt stack 0
   616                           
   617                           ; 1 bytes @ 0xB
   618  00000C                     	ds	1
   619  00000D                     i2___awdiv@quotient:
   620                           	opt stack 0
   621                           
   622                           ; 2 bytes @ 0xC
   623  00000D                     	ds	2
   624  00000F                     ??i2_SetDutyCycle:
   625                           
   626                           ; 1 bytes @ 0xE
   627  00000F                     	ds	2
   628  000011                     i2SetDutyCycle@dutycycle:
   629                           	opt stack 0
   630                           
   631                           ; 1 bytes @ 0x10
   632  000011                     	ds	1
   633  000012                     i2SetPWM@dutycycle:
   634                           	opt stack 0
   635                           
   636                           ; 1 bytes @ 0x11
   637  000012                     	ds	1
   638  000013                     ??_HighISR:
   639  000013                     
   640                           ; 1 bytes @ 0x12
   641  000013                     	ds	16
   642                           tblptru	equ	0xFF8
   643                           tblptrh	equ	0xFF7
   644                           tblptrl	equ	0xFF6
   645                           tablat	equ	0xFF5
   646                           postinc0	equ	0xFEE
   647                           wreg	equ	0xFE8
   648                           postdec1	equ	0xFE5
   649                           fsr1l	equ	0xFE1
   650                           
   651 ;;
   652 ;;Main: autosize = 0, tempsize = 2, incstack = 0, save=0
   653 ;;
   654 ;; *************** function _main *****************
   655 ;; Defined at:
   656 ;;		line 163 in file "Main.c"
   657 ;; Parameters:    Size  Location     Type
   658 ;;		None
   659 ;; Auto vars:     Size  Location     Type
   660 ;;		None
   661 ;; Return value:  Size  Location     Type
   662 ;;                  1    wreg      void 
   663 ;; Registers used:
   664 ;;		wreg, fsr2l, fsr2h, status,2, status,0, tblptrl, tblptrh, tblptru, prodl, prodh, cstack
   665 ;; Tracked objects:
   666 ;;		On entry : 0/0
   667 ;;		On exit  : 0/0
   668 ;;		Unchanged: 0/0
   669 ;; Data sizes:     COMRAM   BANK0   BANK1   BANK2   BANK3   BANK4   BANK5   BANK6   BANK7
   670 ;;      Params:         0       0       0       0       0       0       0       0       0
   671 ;;      Locals:         0       0       0       0       0       0       0       0       0
   672 ;;      Temps:          0       2       0       0       0       0       0       0       0
   673 ;;      Totals:         0       2       0       0       0       0       0       0       0
   674 ;;Total ram usage:        2 bytes
   675 ;; Hardware stack levels required when called:   10
   676 ;; This function calls:
   677 ;;		_InitDHT11Driver
   678 ;;		_Interrupt_Init
   679 ;;		_ReadFrame
   680 ;;		_SerialInit
   681 ;;		_TMR0_INIT
   682 ;;		_TMR0_WRITE_HIGH
   683 ;;		_TMR0_WRITE_LOW
   684 ;;		_TurnOffLights
   685 ;;		_TurnOnLights
   686 ;; This function is called by:
   687 ;;		Startup code after reset
   688 ;; This function uses a non-reentrant model
   689 ;;
   690                           
   691                           	psect	text0
   692  000CC4                     __ptext0:
   693                           	opt stack 0
   694  000CC4                     _main:
   695                           	opt stack 21
   696                           
   697                           ;Main.c: 166: OSCCON=0b01101100;
   698                           
   699                           ;incstack = 0
   700  000CC4  0E6C               	movlw	108
   701  000CC6  6ED3               	movwf	4051,c	;volatile
   702                           
   703                           ;Main.c: 167: Interrupt_Init();
   704  000CC8  EC55  F008         	call	_Interrupt_Init	;wreg free
   705                           
   706                           ;Main.c: 170: TMR0_INIT();
   707  000CCC  EC1A  F008         	call	_TMR0_INIT	;wreg free
   708                           
   709                           ;Main.c: 171: TMR0ON = 0;
   710  000CD0  9ED5               	bcf	4053,7,c	;volatile
   711                           
   712                           ;Main.c: 172: TMR0_WRITE_HIGH(0xB);
   713  000CD2  0E0B               	movlw	11
   714  000CD4  ECEC  F008         	call	_TMR0_WRITE_HIGH
   715                           
   716                           ;Main.c: 173: TMR0_WRITE_LOW(0xD0);
   717  000CD8  0ED0               	movlw	208
   718  000CDA  ECE7  F008         	call	_TMR0_WRITE_LOW
   719                           
   720                           ;Main.c: 174: TMR0ON = 1;
   721  000CDE  8ED5               	bsf	4053,7,c	;volatile
   722                           
   723                           ;Main.c: 177: ADCON0=0b00001001;
   724  000CE0  0E09               	movlw	9
   725  000CE2  6EC2               	movwf	4034,c	;volatile
   726                           
   727                           ;Main.c: 178: ADCON1=0b00001100;
   728  000CE4  0E0C               	movlw	12
   729  000CE6  6EC1               	movwf	4033,c	;volatile
   730                           
   731                           ;Main.c: 179: ADCON2bits.ADFM=1;
   732  000CE8  8EC0               	bsf	4032,7,c	;volatile
   733                           
   734                           ;Main.c: 182: InitDHT11Driver();
   735  000CEA  ECF6  F008         	call	_InitDHT11Driver	;wreg free
   736                           
   737                           ;Main.c: 185: (TRISAbits.TRISA3 = 0);
   738  000CEE  9692               	bcf	3986,3,c	;volatile
   739                           
   740                           ;Main.c: 186: (LATA3=1U);
   741  000CF0  8689               	bsf	3977,3,c	;volatile
   742                           
   743                           ;Main.c: 188: TurnOffLights();
   744  000CF2  ECD0  F008         	call	_TurnOffLights	;wreg free
   745                           
   746                           ;Main.c: 189: lightstate=1;
   747  000CF6  8E3A               	bsf	_lightstate/(0+8),_lightstate& (0+7),c
   748                           
   749                           ;Main.c: 190: timetostartlight=totaldaytime-lightperday;
   750  000CF8  C03C  F0E5         	movff	_lightperday,??_main
   751  000CFC  C03D  F0E6         	movff	_lightperday+1,??_main+1
   752  000D00  0100               	movlb	0	; () banked
   753  000D02  1FE5               	comf	??_main& (0+255),f,b
   754  000D04  1FE6               	comf	(??_main+1)& (0+255),f,b
   755  000D06  4BE5               	infsnz	??_main& (0+255),f,b
   756  000D08  2BE6               	incf	(??_main+1)& (0+255),f,b
   757  000D0A  503E               	movf	_totaldaytime,w,c
   758  000D0C  0100               	movlb	0	; () banked
   759  000D0E  25E5               	addwf	??_main& (0+255),w,b
   760  000D10  0100               	movlb	0	; () banked
   761  000D12  6FBC               	movwf	_timetostartlight& (0+255),b
   762  000D14  503F               	movf	_totaldaytime+1,w,c
   763  000D16  0100               	movlb	0	; () banked
   764  000D18  21E6               	addwfc	(??_main+1)& (0+255),w,b
   765  000D1A  0100               	movlb	0	; () banked
   766  000D1C  6FBD               	movwf	(_timetostartlight+1)& (0+255),b
   767                           
   768                           ; BSR set to: 0
   769                           ;Main.c: 193: SerialInit();
   770  000D1E  EC2E  F008         	call	_SerialInit	;wreg free
   771  000D22                     l2441:
   772                           
   773                           ;Main.c: 197: if(TimerUser==0){
   774  000D22  502C               	movf	_TimerUser,w,c
   775  000D24  A4D8               	btfss	status,2,c
   776  000D26  D010               	goto	l2451
   777                           
   778                           ;Main.c: 199: if(actualtime>timetostartlight){
   779  000D28  5025               	movf	_actualtime,w,c
   780  000D2A  0100               	movlb	0	; () banked
   781  000D2C  5DBC               	subwf	_timetostartlight& (0+255),w,b
   782  000D2E  5026               	movf	_actualtime+1,w,c
   783  000D30  0100               	movlb	0	; () banked
   784  000D32  59BD               	subwfb	(_timetostartlight+1)& (0+255),w,b
   785  000D34  B0D8               	btfsc	status,0,c
   786  000D36  D008               	goto	l2451
   787                           
   788                           ; BSR set to: 0
   789                           ;Main.c: 200: if(Light_f==0){
   790  000D38  B23A               	btfsc	_Light_f/(0+8),_Light_f& (0+7),c
   791  000D3A  D003               	goto	l151
   792                           
   793                           ; BSR set to: 0
   794                           ;Main.c: 201: TurnOffLights();
   795  000D3C  ECD0  F008         	call	_TurnOffLights	;wreg free
   796                           
   797                           ;Main.c: 202: }
   798  000D40  D003               	goto	l2451
   799  000D42                     l151:
   800                           
   801                           ; BSR set to: 0
   802                           ;Main.c: 203: else if (Light_f==1){
   803  000D42  B23A               	btfsc	_Light_f/(0+8),_Light_f& (0+7),c
   804                           
   805                           ; BSR set to: 0
   806                           ;Main.c: 204: TurnOnLights();
   807  000D44  EC91  F008         	call	_TurnOnLights	;wreg free
   808  000D48                     l2451:
   809                           
   810                           ;Main.c: 205: }
   811                           ;Main.c: 206: }
   812                           ;Main.c: 208: }
   813                           ;Main.c: 209: if(f_frameready){
   814  000D48  5032               	movf	_f_frameready,w,c
   815  000D4A  B4D8               	btfsc	status,2,c
   816  000D4C  D7EA               	goto	l2441
   817                           
   818                           ;Main.c: 210: ReadFrame(RecievedData);
   819  000D4E  0EBE               	movlw	low _RecievedData
   820  000D50  0100               	movlb	0	; () banked
   821  000D52  6FDF               	movwf	ReadFrame@pointer& (0+255),b
   822  000D54  0E00               	movlw	high _RecievedData
   823  000D56  0100               	movlb	0	; () banked
   824  000D58  6FE0               	movwf	(ReadFrame@pointer+1)& (0+255),b
   825  000D5A  EC02  F004         	call	_ReadFrame	;wreg free
   826  000D5E  D7E1               	goto	l2441
   827  000D60                     __end_of_main:
   828                           	opt stack 0
   829                           tblptru	equ	0xFF8
   830                           tblptrh	equ	0xFF7
   831                           tblptrl	equ	0xFF6
   832                           tablat	equ	0xFF5
   833                           postinc0	equ	0xFEE
   834                           wreg	equ	0xFE8
   835                           postdec1	equ	0xFE5
   836                           fsr1l	equ	0xFE1
   837                           status	equ	0xFD8
   838                           
   839 ;; *************** function _TurnOffLights *****************
   840 ;; Defined at:
   841 ;;		line 5 in file "LedDriver.c"
   842 ;; Parameters:    Size  Location     Type
   843 ;;		None
   844 ;; Auto vars:     Size  Location     Type
   845 ;;		None
   846 ;; Return value:  Size  Location     Type
   847 ;;                  2   58[None  ] int 
   848 ;; Registers used:
   849 ;;		wreg, status,2, cstack
   850 ;; Tracked objects:
   851 ;;		On entry : 0/0
   852 ;;		On exit  : 0/0
   853 ;;		Unchanged: 0/0
   854 ;; Data sizes:     COMRAM   BANK0   BANK1   BANK2   BANK3   BANK4   BANK5   BANK6   BANK7
   855 ;;      Params:         0       0       0       0       0       0       0       0       0
   856 ;;      Locals:         0       0       0       0       0       0       0       0       0
   857 ;;      Temps:          0       0       0       0       0       0       0       0       0
   858 ;;      Totals:         0       0       0       0       0       0       0       0       0
   859 ;;Total ram usage:        0 bytes
   860 ;; Hardware stack levels used:    1
   861 ;; Hardware stack levels required when called:    6
   862 ;; This function calls:
   863 ;;		_StopPWM
   864 ;; This function is called by:
   865 ;;		_main
   866 ;; This function uses a non-reentrant model
   867 ;;
   868                           
   869                           	psect	text1
   870  0011A0                     __ptext1:
   871                           	opt stack 0
   872  0011A0                     _TurnOffLights:
   873                           	opt stack 24
   874                           
   875                           ;LedDriver.c: 6: if(lightstate_f){
   876                           
   877                           ;incstack = 0
   878  0011A0  A03B               	btfss	_lightstate_f/(0+8),_lightstate_f& (0+7),c
   879  0011A2  0012               	return	
   880                           
   881                           ;LedDriver.c: 7: StopPWM();
   882  0011A4  ECE2  F008         	call	_StopPWM	;wreg free
   883                           
   884                           ;LedDriver.c: 8: lightstate_f=0;
   885  0011A8  903B               	bcf	_lightstate_f/(0+8),_lightstate_f& (0+7),c
   886  0011AA  0012               	return	
   887  0011AC                     __end_of_TurnOffLights:
   888                           	opt stack 0
   889                           tblptru	equ	0xFF8
   890                           tblptrh	equ	0xFF7
   891                           tblptrl	equ	0xFF6
   892                           tablat	equ	0xFF5
   893                           postinc0	equ	0xFEE
   894                           wreg	equ	0xFE8
   895                           postdec1	equ	0xFE5
   896                           fsr1l	equ	0xFE1
   897                           status	equ	0xFD8
   898                           
   899 ;; *************** function _StopPWM *****************
   900 ;; Defined at:
   901 ;;		line 22 in file "PWM.c"
   902 ;; Parameters:    Size  Location     Type
   903 ;;		None
   904 ;; Auto vars:     Size  Location     Type
   905 ;;		None
   906 ;; Return value:  Size  Location     Type
   907 ;;                  1    wreg      void 
   908 ;; Registers used:
   909 ;;		wreg, status,2
   910 ;; Tracked objects:
   911 ;;		On entry : 0/0
   912 ;;		On exit  : 0/0
   913 ;;		Unchanged: 0/0
   914 ;; Data sizes:     COMRAM   BANK0   BANK1   BANK2   BANK3   BANK4   BANK5   BANK6   BANK7
   915 ;;      Params:         0       0       0       0       0       0       0       0       0
   916 ;;      Locals:         0       0       0       0       0       0       0       0       0
   917 ;;      Temps:          0       0       0       0       0       0       0       0       0
   918 ;;      Totals:         0       0       0       0       0       0       0       0       0
   919 ;;Total ram usage:        0 bytes
   920 ;; Hardware stack levels used:    1
   921 ;; Hardware stack levels required when called:    5
   922 ;; This function calls:
   923 ;;		Nothing
   924 ;; This function is called by:
   925 ;;		_TurnOffLights
   926 ;; This function uses a non-reentrant model
   927 ;;
   928                           
   929                           	psect	text2
   930  0011C4                     __ptext2:
   931                           	opt stack 0
   932  0011C4                     _StopPWM:
   933                           	opt stack 24
   934                           
   935                           ;PWM.c: 23: CCP2CON=0x00;
   936                           
   937                           ;incstack = 0
   938  0011C4  0E00               	movlw	0
   939  0011C6  6EBA               	movwf	4026,c	;volatile
   940                           
   941                           ;PWM.c: 24: T1OSCEN=0U;
   942  0011C8  96CD               	bcf	4045,3,c	;volatile
   943                           
   944                           ;PWM.c: 25: (LATB3=0U);
   945  0011CA  968A               	bcf	3978,3,c	;volatile
   946  0011CC  0012               	return		;funcret
   947  0011CE                     __end_of_StopPWM:
   948                           	opt stack 0
   949                           tblptru	equ	0xFF8
   950                           tblptrh	equ	0xFF7
   951                           tblptrl	equ	0xFF6
   952                           tablat	equ	0xFF5
   953                           postinc0	equ	0xFEE
   954                           wreg	equ	0xFE8
   955                           postdec1	equ	0xFE5
   956                           fsr1l	equ	0xFE1
   957                           status	equ	0xFD8
   958                           
   959 ;; *************** function _TMR0_WRITE_LOW *****************
   960 ;; Defined at:
   961 ;;		line 79 in file "Timer_0.c"
   962 ;; Parameters:    Size  Location     Type
   963 ;;  valorLow        1    wreg     unsigned char 
   964 ;; Auto vars:     Size  Location     Type
   965 ;;  valorLow        1    0[BANK0 ] unsigned char 
   966 ;; Return value:  Size  Location     Type
   967 ;;                  1    wreg      void 
   968 ;; Registers used:
   969 ;;		wreg
   970 ;; Tracked objects:
   971 ;;		On entry : 0/0
   972 ;;		On exit  : 0/0
   973 ;;		Unchanged: 0/0
   974 ;; Data sizes:     COMRAM   BANK0   BANK1   BANK2   BANK3   BANK4   BANK5   BANK6   BANK7
   975 ;;      Params:         0       0       0       0       0       0       0       0       0
   976 ;;      Locals:         0       1       0       0       0       0       0       0       0
   977 ;;      Temps:          0       0       0       0       0       0       0       0       0
   978 ;;      Totals:         0       1       0       0       0       0       0       0       0
   979 ;;Total ram usage:        1 bytes
   980 ;; Hardware stack levels used:    1
   981 ;; Hardware stack levels required when called:    5
   982 ;; This function calls:
   983 ;;		Nothing
   984 ;; This function is called by:
   985 ;;		_main
   986 ;; This function uses a non-reentrant model
   987 ;;
   988                           
   989                           	psect	text3
   990  0011CE                     __ptext3:
   991                           	opt stack 0
   992  0011CE                     _TMR0_WRITE_LOW:
   993                           	opt stack 25
   994                           
   995                           ;incstack = 0
   996                           ;TMR0_WRITE_LOW@valorLow stored from wreg
   997  0011CE  0100               	movlb	0	; () banked
   998  0011D0  6FCD               	movwf	TMR0_WRITE_LOW@valorLow& (0+255),b
   999                           
  1000                           ;Timer_0.c: 81: TMR0L=valorLow;
  1001  0011D2  C0CD  FFD6         	movff	TMR0_WRITE_LOW@valorLow,4054	;volatile
  1002  0011D6  0012               	return		;funcret
  1003  0011D8                     __end_of_TMR0_WRITE_LOW:
  1004                           	opt stack 0
  1005                           tblptru	equ	0xFF8
  1006                           tblptrh	equ	0xFF7
  1007                           tblptrl	equ	0xFF6
  1008                           tablat	equ	0xFF5
  1009                           postinc0	equ	0xFEE
  1010                           wreg	equ	0xFE8
  1011                           postdec1	equ	0xFE5
  1012                           fsr1l	equ	0xFE1
  1013                           status	equ	0xFD8
  1014                           
  1015 ;; *************** function _TMR0_WRITE_HIGH *****************
  1016 ;; Defined at:
  1017 ;;		line 66 in file "Timer_0.c"
  1018 ;; Parameters:    Size  Location     Type
  1019 ;;  valorHigh       1    wreg     unsigned char 
  1020 ;; Auto vars:     Size  Location     Type
  1021 ;;  valorHigh       1    0[BANK0 ] unsigned char 
  1022 ;; Return value:  Size  Location     Type
  1023 ;;                  1    wreg      void 
  1024 ;; Registers used:
  1025 ;;		wreg
  1026 ;; Tracked objects:
  1027 ;;		On entry : 0/0
  1028 ;;		On exit  : 0/0
  1029 ;;		Unchanged: 0/0
  1030 ;; Data sizes:     COMRAM   BANK0   BANK1   BANK2   BANK3   BANK4   BANK5   BANK6   BANK7
  1031 ;;      Params:         0       0       0       0       0       0       0       0       0
  1032 ;;      Locals:         0       1       0       0       0       0       0       0       0
  1033 ;;      Temps:          0       0       0       0       0       0       0       0       0
  1034 ;;      Totals:         0       1       0       0       0       0       0       0       0
  1035 ;;Total ram usage:        1 bytes
  1036 ;; Hardware stack levels used:    1
  1037 ;; Hardware stack levels required when called:    5
  1038 ;; This function calls:
  1039 ;;		Nothing
  1040 ;; This function is called by:
  1041 ;;		_main
  1042 ;; This function uses a non-reentrant model
  1043 ;;
  1044                           
  1045                           	psect	text4
  1046  0011D8                     __ptext4:
  1047                           	opt stack 0
  1048  0011D8                     _TMR0_WRITE_HIGH:
  1049                           	opt stack 25
  1050                           
  1051                           ;incstack = 0
  1052                           ;TMR0_WRITE_HIGH@valorHigh stored from wreg
  1053  0011D8  0100               	movlb	0	; () banked
  1054  0011DA  6FCD               	movwf	TMR0_WRITE_HIGH@valorHigh& (0+255),b
  1055                           
  1056                           ;Timer_0.c: 68: TMR0H=valorHigh;
  1057  0011DC  C0CD  FFD7         	movff	TMR0_WRITE_HIGH@valorHigh,4055	;volatile
  1058  0011E0  0012               	return		;funcret
  1059  0011E2                     __end_of_TMR0_WRITE_HIGH:
  1060                           	opt stack 0
  1061                           tblptru	equ	0xFF8
  1062                           tblptrh	equ	0xFF7
  1063                           tblptrl	equ	0xFF6
  1064                           tablat	equ	0xFF5
  1065                           postinc0	equ	0xFEE
  1066                           wreg	equ	0xFE8
  1067                           postdec1	equ	0xFE5
  1068                           fsr1l	equ	0xFE1
  1069                           status	equ	0xFD8
  1070                           
  1071 ;; *************** function _TMR0_INIT *****************
  1072 ;; Defined at:
  1073 ;;		line 23 in file "Timer_0.c"
  1074 ;; Parameters:    Size  Location     Type
  1075 ;;		None
  1076 ;; Auto vars:     Size  Location     Type
  1077 ;;  T0PS            1    1[BANK0 ] unsigned char 
  1078 ;;  bits            1    0[BANK0 ] unsigned char 
  1079 ;; Return value:  Size  Location     Type
  1080 ;;                  1    wreg      void 
  1081 ;; Registers used:
  1082 ;;		wreg, status,2, status,0, prodl, prodh
  1083 ;; Tracked objects:
  1084 ;;		On entry : 0/0
  1085 ;;		On exit  : 0/0
  1086 ;;		Unchanged: 0/0
  1087 ;; Data sizes:     COMRAM   BANK0   BANK1   BANK2   BANK3   BANK4   BANK5   BANK6   BANK7
  1088 ;;      Params:         0       0       0       0       0       0       0       0       0
  1089 ;;      Locals:         0       2       0       0       0       0       0       0       0
  1090 ;;      Temps:          0       0       0       0       0       0       0       0       0
  1091 ;;      Totals:         0       2       0       0       0       0       0       0       0
  1092 ;;Total ram usage:        2 bytes
  1093 ;; Hardware stack levels used:    1
  1094 ;; Hardware stack levels required when called:    5
  1095 ;; This function calls:
  1096 ;;		Nothing
  1097 ;; This function is called by:
  1098 ;;		_main
  1099 ;; This function uses a non-reentrant model
  1100 ;;
  1101                           
  1102                           	psect	text5
  1103  001034                     __ptext5:
  1104                           	opt stack 0
  1105  001034                     _TMR0_INIT:
  1106                           	opt stack 25
  1107                           
  1108                           ; BSR set to: 0
  1109                           
  1110                           ;Timer_0.c: 30: else if (32 == 32){T0PS=4;}
  1111                           
  1112                           ; BSR set to: 0
  1113                           
  1114                           ; BSR set to: 0
  1115                           ;Timer_0.c: 29: else if (32 == 16){T0PS=3;}
  1116                           
  1117                           ; BSR set to: 0
  1118                           
  1119                           ; BSR set to: 0
  1120                           ;Timer_0.c: 28: else if (32 == 8){T0PS=2;}
  1121                           
  1122                           ; BSR set to: 0
  1123                           
  1124                           ; BSR set to: 0
  1125                           ;Timer_0.c: 27: else if (32 == 4){T0PS=1;}
  1126                           
  1127                           ;Timer_0.c: 25: u8 T0PS;
  1128                           ;Timer_0.c: 26: if (32 == 2){T0PS=0;}
  1129                           
  1130                           ;incstack = 0
  1131  001034  0E04               	movlw	4
  1132                           
  1133                           ; BSR set to: 0
  1134                           ;Timer_0.c: 33: else {T0PS=7;}
  1135                           
  1136                           ; BSR set to: 0
  1137                           
  1138                           ; BSR set to: 0
  1139                           
  1140                           ; BSR set to: 0
  1141                           ;Timer_0.c: 32: else if (32 == 128){T0PS=6;}
  1142                           
  1143                           ; BSR set to: 0
  1144                           
  1145                           ; BSR set to: 0
  1146                           ;Timer_0.c: 31: else if (32 == 64){T0PS=5;}
  1147  001036  0100               	movlb	0	; () banked
  1148  001038  6FCE               	movwf	TMR0_INIT@T0PS& (0+255),b
  1149                           
  1150                           ; BSR set to: 0
  1151                           ;Timer_0.c: 37: else {bits=0;}
  1152                           
  1153                           ; BSR set to: 0
  1154                           
  1155                           ; BSR set to: 0
  1156                           
  1157                           ; BSR set to: 0
  1158                           ;Timer_0.c: 35: u8 bits;
  1159                           ;Timer_0.c: 36: if (16==8){bits=1;}
  1160                           
  1161                           ; BSR set to: 0
  1162                           
  1163                           ; BSR set to: 0
  1164                           
  1165                           ; BSR set to: 0
  1166                           
  1167                           ; BSR set to: 0
  1168                           
  1169                           ; BSR set to: 0
  1170                           
  1171                           ; BSR set to: 0
  1172  00103A  0E00               	movlw	0
  1173  00103C  0100               	movlb	0	; () banked
  1174  00103E  6FCD               	movwf	TMR0_INIT@bits& (0+255),b
  1175                           
  1176                           ; BSR set to: 0
  1177                           ;Timer_0.c: 39: T0CON=(1*128)+(bits*64)+(0*32)+(0*16)+(0*8)+T0PS;
  1178                           
  1179                           ; BSR set to: 0
  1180  001040  0100               	movlb	0	; () banked
  1181  001042  51CD               	movf	TMR0_INIT@bits& (0+255),w,b
  1182  001044  0D40               	mullw	64
  1183  001046  50F3               	movf	prodl,w,c
  1184  001048  0100               	movlb	0	; () banked
  1185  00104A  25CE               	addwf	TMR0_INIT@T0PS& (0+255),w,b
  1186  00104C  0F80               	addlw	128
  1187  00104E  6ED5               	movwf	4053,c	;volatile
  1188                           
  1189                           ; BSR set to: 0
  1190                           ;Timer_0.c: 41: TMR0=0x15;
  1191  001050  0E00               	movlw	0
  1192  001052  6ED7               	movwf	4055,c	;volatile
  1193  001054  0E15               	movlw	21
  1194  001056  6ED6               	movwf	4054,c	;volatile
  1195                           
  1196                           ; BSR set to: 0
  1197                           ;Timer_0.c: 42: T0IF=0;
  1198  001058  94F2               	bcf	intcon,2,c	;volatile
  1199                           
  1200                           ; BSR set to: 0
  1201  00105A  0012               	return		;funcret
  1202  00105C                     __end_of_TMR0_INIT:
  1203                           	opt stack 0
  1204                           tblptru	equ	0xFF8
  1205                           tblptrh	equ	0xFF7
  1206                           tblptrl	equ	0xFF6
  1207                           tablat	equ	0xFF5
  1208                           prodl	equ	0xFF3
  1209                           intcon	equ	0xFF2
  1210                           postinc0	equ	0xFEE
  1211                           wreg	equ	0xFE8
  1212                           postdec1	equ	0xFE5
  1213                           fsr1l	equ	0xFE1
  1214                           status	equ	0xFD8
  1215                           
  1216 ;; *************** function _SerialInit *****************
  1217 ;; Defined at:
  1218 ;;		line 37 in file "SerialCOM.c"
  1219 ;; Parameters:    Size  Location     Type
  1220 ;;		None
  1221 ;; Auto vars:     Size  Location     Type
  1222 ;;		None
  1223 ;; Return value:  Size  Location     Type
  1224 ;;                  1    wreg      void 
  1225 ;; Registers used:
  1226 ;;		wreg, tblptrl, tblptrh, tblptru
  1227 ;; Tracked objects:
  1228 ;;		On entry : 0/0
  1229 ;;		On exit  : 0/0
  1230 ;;		Unchanged: 0/0
  1231 ;; Data sizes:     COMRAM   BANK0   BANK1   BANK2   BANK3   BANK4   BANK5   BANK6   BANK7
  1232 ;;      Params:         0       0       0       0       0       0       0       0       0
  1233 ;;      Locals:         0       0       0       0       0       0       0       0       0
  1234 ;;      Temps:          0       0       0       0       0       0       0       0       0
  1235 ;;      Totals:         0       0       0       0       0       0       0       0       0
  1236 ;;Total ram usage:        0 bytes
  1237 ;; Hardware stack levels used:    1
  1238 ;; Hardware stack levels required when called:    5
  1239 ;; This function calls:
  1240 ;;		Nothing
  1241 ;; This function is called by:
  1242 ;;		_main
  1243 ;; This function uses a non-reentrant model
  1244 ;;
  1245                           
  1246                           	psect	text6
  1247  00105C                     __ptext6:
  1248                           	opt stack 0
  1249  00105C                     _SerialInit:
  1250                           	opt stack 25
  1251                           
  1252                           ;SerialCOM.c: 40: CSRC = 0U;
  1253                           
  1254                           ; BSR set to: 0
  1255                           ;incstack = 0
  1256  00105C  9EAC               	bcf	4012,7,c	;volatile
  1257                           
  1258                           ;SerialCOM.c: 41: TX9 = 0U;
  1259  00105E  9CAC               	bcf	4012,6,c	;volatile
  1260                           
  1261                           ;SerialCOM.c: 42: TXEN = 1U;
  1262  001060  8AAC               	bsf	4012,5,c	;volatile
  1263                           
  1264                           ;SerialCOM.c: 43: SYNC = 0U;
  1265  001062  98AC               	bcf	4012,4,c	;volatile
  1266                           
  1267                           ;SerialCOM.c: 44: SENDB = 0U;
  1268  001064  96AC               	bcf	4012,3,c	;volatile
  1269                           
  1270                           ;SerialCOM.c: 45: BRGH = 0U;;
  1271  001066  94AC               	bcf	4012,2,c	;volatile
  1272                           
  1273                           ;SerialCOM.c: 48: SPEN = 1U;
  1274  001068  8EAB               	bsf	4011,7,c	;volatile
  1275                           
  1276                           ;SerialCOM.c: 49: RX9 = 0U;
  1277  00106A  9CAB               	bcf	4011,6,c	;volatile
  1278                           
  1279                           ;SerialCOM.c: 50: SREN = 0U;
  1280  00106C  9AAB               	bcf	4011,5,c	;volatile
  1281                           
  1282                           ;SerialCOM.c: 51: CREN = 1U;
  1283  00106E  88AB               	bsf	4011,4,c	;volatile
  1284                           
  1285                           ;SerialCOM.c: 52: ADDEN = 0U;
  1286  001070  96AB               	bcf	4011,3,c	;volatile
  1287                           
  1288                           ;SerialCOM.c: 55: BRG16 = 0U;
  1289  001072  96B8               	bcf	4024,3,c	;volatile
  1290                           
  1291                           ;SerialCOM.c: 58: SPBRG = _SPBRG;
  1292  001074  0E01               	movlw	low SerialCOM@_SPBRG
  1293  001076  6EF6               	movwf	tblptrl,c
  1294  001078                     	if	1	;There is more than 1 active tblptr byte
  1295  001078  0E08               	movlw	high SerialCOM@_SPBRG
  1296  00107A  6EF7               	movwf	tblptrh,c
  1297  00107C                     	endif
  1298  00107C                     	if	0	;There are less than 3 active tblptr bytes
  1299  00107C                     	endif
  1300  00107C  0008               	tblrd		*
  1301  00107E  CFF5 FFAF          	movff	tablat,4015	;volatile
  1302  001082  0012               	return		;funcret
  1303  001084                     __end_of_SerialInit:
  1304                           	opt stack 0
  1305                           tblptru	equ	0xFF8
  1306                           tblptrh	equ	0xFF7
  1307                           tblptrl	equ	0xFF6
  1308                           tablat	equ	0xFF5
  1309                           prodl	equ	0xFF3
  1310                           intcon	equ	0xFF2
  1311                           postinc0	equ	0xFEE
  1312                           wreg	equ	0xFE8
  1313                           postdec1	equ	0xFE5
  1314                           fsr1l	equ	0xFE1
  1315                           status	equ	0xFD8
  1316                           
  1317 ;; *************** function _ReadFrame *****************
  1318 ;; Defined at:
  1319 ;;		line 71 in file "SerialCOM.c"
  1320 ;; Parameters:    Size  Location     Type
  1321 ;;  pointer         2   18[BANK0 ] PTR unsigned char 
  1322 ;;		 -> RecievedData(15), 
  1323 ;; Auto vars:     Size  Location     Type
  1324 ;;		None
  1325 ;; Return value:  Size  Location     Type
  1326 ;;                  1    wreg      void 
  1327 ;; Registers used:
  1328 ;;		wreg, fsr2l, fsr2h, status,2, status,0, prodl, prodh, cstack
  1329 ;; Tracked objects:
  1330 ;;		On entry : 0/0
  1331 ;;		On exit  : 0/0
  1332 ;;		Unchanged: 0/0
  1333 ;; Data sizes:     COMRAM   BANK0   BANK1   BANK2   BANK3   BANK4   BANK5   BANK6   BANK7
  1334 ;;      Params:         0       2       0       0       0       0       0       0       0
  1335 ;;      Locals:         0       0       0       0       0       0       0       0       0
  1336 ;;      Temps:          0       4       0       0       0       0       0       0       0
  1337 ;;      Totals:         0       6       0       0       0       0       0       0       0
  1338 ;;Total ram usage:        6 bytes
  1339 ;; Hardware stack levels used:    1
  1340 ;; Hardware stack levels required when called:    9
  1341 ;; This function calls:
  1342 ;;		_TurnOnLights
  1343 ;;		___wmul
  1344 ;; This function is called by:
  1345 ;;		_main
  1346 ;; This function uses a non-reentrant model
  1347 ;;
  1348                           
  1349                           	psect	text7
  1350  000804                     __ptext7:
  1351                           	opt stack 0
  1352  000804                     _ReadFrame:
  1353                           	opt stack 21
  1354                           
  1355                           ;SerialCOM.c: 74: if(f_frameready){
  1356                           
  1357                           ;incstack = 0
  1358  000804  5032               	movf	_f_frameready,w,c
  1359  000806  B4D8               	btfsc	status,2,c
  1360  000808  0012               	return	
  1361                           
  1362                           ;SerialCOM.c: 75: f_frameready=0;
  1363  00080A  0E00               	movlw	0
  1364  00080C  6E32               	movwf	_f_frameready,c
  1365                           
  1366                           ;SerialCOM.c: 77: pointer = &RecievedData[0];
  1367  00080E  0EBE               	movlw	low _RecievedData
  1368  000810  0100               	movlb	0	; () banked
  1369  000812  6FDF               	movwf	ReadFrame@pointer& (0+255),b
  1370  000814  0E00               	movlw	high _RecievedData
  1371  000816  0100               	movlb	0	; () banked
  1372  000818  6FE0               	movwf	(ReadFrame@pointer+1)& (0+255),b
  1373                           
  1374                           ; BSR set to: 0
  1375                           ;SerialCOM.c: 79: if ((*pointer)==firstbyte[0])
  1376  00081A  C0DF  FFD9         	movff	ReadFrame@pointer,fsr2l
  1377  00081E  C0E0  FFDA         	movff	ReadFrame@pointer+1,fsr2h
  1378  000822  0100               	movlb	0	; () banked
  1379  000824  51F1               	movf	_firstbyte& (0+255),w,b
  1380  000826  18DE               	xorwf	postinc2,w,c
  1381  000828  A4D8               	btfss	status,2,c
  1382  00082A  D017               	goto	l2345
  1383                           
  1384                           ; BSR set to: 0
  1385                           ;SerialCOM.c: 80: {
  1386                           ;SerialCOM.c: 81: pointer++;
  1387  00082C  0100               	movlb	0	; () banked
  1388  00082E  4BDF               	infsnz	ReadFrame@pointer& (0+255),f,b
  1389  000830  2BE0               	incf	(ReadFrame@pointer+1)& (0+255),f,b
  1390                           
  1391                           ; BSR set to: 0
  1392                           ;SerialCOM.c: 82: if(*pointer==light){
  1393  000832  C0DF  FFD9         	movff	ReadFrame@pointer,fsr2l
  1394  000836  C0E0  FFDA         	movff	ReadFrame@pointer+1,fsr2h
  1395  00083A  5043               	movf	_light,w,c
  1396  00083C  18DE               	xorwf	postinc2,w,c
  1397  00083E  B4D8               	btfsc	status,2,c
  1398                           
  1399                           ; BSR set to: 0
  1400                           ;SerialCOM.c: 83: TurnOnLights();
  1401  000840  EC91  F008         	call	_TurnOnLights	;wreg free
  1402                           
  1403                           ;SerialCOM.c: 84: }
  1404                           ;SerialCOM.c: 85: if(*pointer==fan){
  1405  000844  C0DF  FFD9         	movff	ReadFrame@pointer,fsr2l
  1406  000848  C0E0  FFDA         	movff	ReadFrame@pointer+1,fsr2h
  1407  00084C  5042               	movf	_fan,w,c
  1408  00084E  18DE               	xorwf	postinc2,w,c
  1409  000850  B4D8               	btfsc	status,2,c
  1410                           
  1411                           ;SerialCOM.c: 86: (LATA3=1U);
  1412  000852  8689               	bsf	3977,3,c	;volatile
  1413                           
  1414                           ;SerialCOM.c: 87: }
  1415                           ;SerialCOM.c: 88: TimerUser=30;
  1416  000854  0E1E               	movlw	30
  1417  000856  6E2C               	movwf	_TimerUser,c
  1418                           
  1419                           ;SerialCOM.c: 89: }
  1420  000858  D0E3               	goto	l2395
  1421  00085A                     l2345:
  1422                           
  1423                           ;SerialCOM.c: 90: else if (*pointer==firstbyte[1]){
  1424  00085A  C0DF  FFD9         	movff	ReadFrame@pointer,fsr2l
  1425  00085E  C0E0  FFDA         	movff	ReadFrame@pointer+1,fsr2h
  1426  000862  0100               	movlb	0	; () banked
  1427  000864  51F2               	movf	(_firstbyte+1)& (0+255),w,b
  1428  000866  18DE               	xorwf	postinc2,w,c
  1429  000868  A4D8               	btfss	status,2,c
  1430  00086A  D01F               	goto	l2361
  1431                           
  1432                           ; BSR set to: 0
  1433                           ;SerialCOM.c: 91: pointer++;
  1434  00086C  0100               	movlb	0	; () banked
  1435  00086E  4BDF               	infsnz	ReadFrame@pointer& (0+255),f,b
  1436  000870  2BE0               	incf	(ReadFrame@pointer+1)& (0+255),f,b
  1437                           
  1438                           ; BSR set to: 0
  1439                           ;SerialCOM.c: 92: if(*pointer=='H'){
  1440  000872  C0DF  FFD9         	movff	ReadFrame@pointer,fsr2l
  1441  000876  C0E0  FFDA         	movff	ReadFrame@pointer+1,fsr2h
  1442  00087A  0E48               	movlw	72
  1443  00087C  18DE               	xorwf	postinc2,w,c
  1444  00087E  A4D8               	btfss	status,2,c
  1445  000880  D008               	goto	l2355
  1446  000882  D00F               	goto	l2357
  1447  000884                     l2353:
  1448                           
  1449                           ; BSR set to: 0
  1450                           ;SerialCOM.c: 94: optimalhumidity= *pointer;
  1451  000884  C0DF  FFD9         	movff	ReadFrame@pointer,fsr2l
  1452  000888  C0E0  FFDA         	movff	ReadFrame@pointer+1,fsr2h
  1453  00088C  50DF               	movf	indf2,w,c
  1454  00088E  6E35               	movwf	_optimalhumidity,c
  1455                           
  1456                           ;SerialCOM.c: 95: }
  1457  000890  D0C7               	goto	l2395
  1458  000892                     l2355:
  1459                           
  1460                           ; BSR set to: 0
  1461                           ;SerialCOM.c: 96: else if (*pointer=='T'){
  1462  000892  C0DF  FFD9         	movff	ReadFrame@pointer,fsr2l
  1463  000896  C0E0  FFDA         	movff	ReadFrame@pointer+1,fsr2h
  1464  00089A  0E54               	movlw	84
  1465  00089C  18DE               	xorwf	postinc2,w,c
  1466  00089E  A4D8               	btfss	status,2,c
  1467  0008A0  D0BF               	goto	l2395
  1468  0008A2                     l2357:
  1469                           
  1470                           ; BSR set to: 0
  1471                           ;SerialCOM.c: 97: pointer++;
  1472  0008A2  0100               	movlb	0	; () banked
  1473  0008A4  4BDF               	infsnz	ReadFrame@pointer& (0+255),f,b
  1474  0008A6  2BE0               	incf	(ReadFrame@pointer+1)& (0+255),f,b
  1475  0008A8  D7ED               	goto	l2353
  1476  0008AA                     l2361:
  1477                           
  1478                           ; BSR set to: 0
  1479                           ;SerialCOM.c: 101: else if (*pointer==firstbyte[2])
  1480  0008AA  C0DF  FFD9         	movff	ReadFrame@pointer,fsr2l
  1481  0008AE  C0E0  FFDA         	movff	ReadFrame@pointer+1,fsr2h
  1482  0008B2  0100               	movlb	0	; () banked
  1483  0008B4  51F3               	movf	(_firstbyte+2)& (0+255),w,b
  1484  0008B6  18DE               	xorwf	postinc2,w,c
  1485  0008B8  A4D8               	btfss	status,2,c
  1486  0008BA  D07E               	goto	l2375
  1487                           
  1488                           ; BSR set to: 0
  1489                           ;SerialCOM.c: 102: {
  1490                           ;SerialCOM.c: 103: pointer++;
  1491  0008BC  0100               	movlb	0	; () banked
  1492  0008BE  4BDF               	infsnz	ReadFrame@pointer& (0+255),f,b
  1493  0008C0  2BE0               	incf	(ReadFrame@pointer+1)& (0+255),f,b
  1494                           
  1495                           ; BSR set to: 0
  1496                           ;SerialCOM.c: 104: lightperday = (*pointer-0x30)*1000;
  1497  0008C2  C0DF  FFD9         	movff	ReadFrame@pointer,fsr2l
  1498  0008C6  C0E0  FFDA         	movff	ReadFrame@pointer+1,fsr2h
  1499  0008CA  50DF               	movf	indf2,w,c
  1500  0008CC  0100               	movlb	0	; () banked
  1501  0008CE  6FE1               	movwf	??_ReadFrame& (0+255),b
  1502  0008D0  0ED0               	movlw	208
  1503  0008D2  0100               	movlb	0	; () banked
  1504  0008D4  25E1               	addwf	??_ReadFrame& (0+255),w,b
  1505  0008D6  0100               	movlb	0	; () banked
  1506  0008D8  6FCD               	movwf	___wmul@multiplier& (0+255),b
  1507  0008DA  0100               	movlb	0	; () banked
  1508  0008DC  6BCE               	clrf	(___wmul@multiplier+1)& (0+255),b
  1509  0008DE  0EFF               	movlw	255
  1510  0008E0  23CE               	addwfc	(___wmul@multiplier+1)& (0+255),f,b
  1511  0008E2  0E03               	movlw	3
  1512  0008E4  0100               	movlb	0	; () banked
  1513  0008E6  6FD0               	movwf	(___wmul@multiplicand+1)& (0+255),b
  1514  0008E8  0EE8               	movlw	232
  1515  0008EA  6FCF               	movwf	___wmul@multiplicand& (0+255),b
  1516  0008EC  ECFF  F007         	call	___wmul	;wreg free
  1517  0008F0  C0CD  F03C         	movff	?___wmul,_lightperday
  1518  0008F4  C0CE  F03D         	movff	?___wmul+1,_lightperday+1
  1519                           
  1520                           ;SerialCOM.c: 105: pointer++;
  1521  0008F8  0100               	movlb	0	; () banked
  1522  0008FA  4BDF               	infsnz	ReadFrame@pointer& (0+255),f,b
  1523  0008FC  2BE0               	incf	(ReadFrame@pointer+1)& (0+255),f,b
  1524                           
  1525                           ;SerialCOM.c: 106: lightperday += (*pointer-0x30)*100;
  1526  0008FE  C0DF  FFD9         	movff	ReadFrame@pointer,fsr2l
  1527  000902  C0E0  FFDA         	movff	ReadFrame@pointer+1,fsr2h
  1528  000906  50DF               	movf	indf2,w,c
  1529  000908  0100               	movlb	0	; () banked
  1530  00090A  6FE1               	movwf	??_ReadFrame& (0+255),b
  1531  00090C  0ED0               	movlw	208
  1532  00090E  0100               	movlb	0	; () banked
  1533  000910  25E1               	addwf	??_ReadFrame& (0+255),w,b
  1534  000912  0100               	movlb	0	; () banked
  1535  000914  6FCD               	movwf	___wmul@multiplier& (0+255),b
  1536  000916  0100               	movlb	0	; () banked
  1537  000918  6BCE               	clrf	(___wmul@multiplier+1)& (0+255),b
  1538  00091A  0EFF               	movlw	255
  1539  00091C  23CE               	addwfc	(___wmul@multiplier+1)& (0+255),f,b
  1540  00091E  0E00               	movlw	0
  1541  000920  0100               	movlb	0	; () banked
  1542  000922  6FD0               	movwf	(___wmul@multiplicand+1)& (0+255),b
  1543  000924  0E64               	movlw	100
  1544  000926  6FCF               	movwf	___wmul@multiplicand& (0+255),b
  1545  000928  ECFF  F007         	call	___wmul	;wreg free
  1546  00092C  0100               	movlb	0	; () banked
  1547  00092E  51CD               	movf	?___wmul& (0+255),w,b
  1548  000930  263C               	addwf	_lightperday,f,c
  1549  000932  0100               	movlb	0	; () banked
  1550  000934  51CE               	movf	(?___wmul+1)& (0+255),w,b
  1551  000936  223D               	addwfc	_lightperday+1,f,c
  1552                           
  1553                           ; BSR set to: 0
  1554                           ;SerialCOM.c: 107: pointer++;
  1555  000938  0100               	movlb	0	; () banked
  1556  00093A  4BDF               	infsnz	ReadFrame@pointer& (0+255),f,b
  1557  00093C  2BE0               	incf	(ReadFrame@pointer+1)& (0+255),f,b
  1558                           
  1559                           ; BSR set to: 0
  1560                           ;SerialCOM.c: 108: lightperday += (*pointer-0x30)*10;
  1561  00093E  C0DF  FFD9         	movff	ReadFrame@pointer,fsr2l
  1562  000942  C0E0  FFDA         	movff	ReadFrame@pointer+1,fsr2h
  1563  000946  50DF               	movf	indf2,w,c
  1564  000948  0100               	movlb	0	; () banked
  1565  00094A  6FE1               	movwf	??_ReadFrame& (0+255),b
  1566  00094C  0ED0               	movlw	208
  1567  00094E  0100               	movlb	0	; () banked
  1568  000950  25E1               	addwf	??_ReadFrame& (0+255),w,b
  1569  000952  0100               	movlb	0	; () banked
  1570  000954  6FCD               	movwf	___wmul@multiplier& (0+255),b
  1571  000956  0100               	movlb	0	; () banked
  1572  000958  6BCE               	clrf	(___wmul@multiplier+1)& (0+255),b
  1573  00095A  0EFF               	movlw	255
  1574  00095C  23CE               	addwfc	(___wmul@multiplier+1)& (0+255),f,b
  1575  00095E  0E00               	movlw	0
  1576  000960  0100               	movlb	0	; () banked
  1577  000962  6FD0               	movwf	(___wmul@multiplicand+1)& (0+255),b
  1578  000964  0E0A               	movlw	10
  1579  000966  6FCF               	movwf	___wmul@multiplicand& (0+255),b
  1580  000968  ECFF  F007         	call	___wmul	;wreg free
  1581  00096C  0100               	movlb	0	; () banked
  1582  00096E  51CD               	movf	?___wmul& (0+255),w,b
  1583  000970  263C               	addwf	_lightperday,f,c
  1584  000972  0100               	movlb	0	; () banked
  1585  000974  51CE               	movf	(?___wmul+1)& (0+255),w,b
  1586  000976  223D               	addwfc	_lightperday+1,f,c
  1587                           
  1588                           ;SerialCOM.c: 109: pointer++;
  1589  000978  0100               	movlb	0	; () banked
  1590  00097A  4BDF               	infsnz	ReadFrame@pointer& (0+255),f,b
  1591  00097C  2BE0               	incf	(ReadFrame@pointer+1)& (0+255),f,b
  1592                           
  1593                           ; BSR set to: 0
  1594                           ;SerialCOM.c: 110: lightperday += (*pointer-0x30);
  1595  00097E  0ED0               	movlw	208
  1596  000980  0100               	movlb	0	; () banked
  1597  000982  6FE1               	movwf	??_ReadFrame& (0+255),b
  1598  000984  0EFF               	movlw	255
  1599  000986  0100               	movlb	0	; () banked
  1600  000988  6FE2               	movwf	(??_ReadFrame+1)& (0+255),b
  1601  00098A  C0DF  FFD9         	movff	ReadFrame@pointer,fsr2l
  1602  00098E  C0E0  FFDA         	movff	ReadFrame@pointer+1,fsr2h
  1603  000992  50DF               	movf	indf2,w,c
  1604  000994  0100               	movlb	0	; () banked
  1605  000996  6FE3               	movwf	(??_ReadFrame+2)& (0+255),b
  1606  000998  6BE4               	clrf	(??_ReadFrame+3)& (0+255),b
  1607  00099A  0100               	movlb	0	; () banked
  1608  00099C  51E1               	movf	??_ReadFrame& (0+255),w,b
  1609  00099E  0100               	movlb	0	; () banked
  1610  0009A0  27E3               	addwf	(??_ReadFrame+2)& (0+255),f,b
  1611  0009A2  0100               	movlb	0	; () banked
  1612  0009A4  51E2               	movf	(??_ReadFrame+1)& (0+255),w,b
  1613  0009A6  0100               	movlb	0	; () banked
  1614  0009A8  23E4               	addwfc	(??_ReadFrame+3)& (0+255),f,b
  1615  0009AA  0100               	movlb	0	; () banked
  1616  0009AC  51E3               	movf	(??_ReadFrame+2)& (0+255),w,b
  1617  0009AE  263C               	addwf	_lightperday,f,c
  1618  0009B0  0100               	movlb	0	; () banked
  1619  0009B2  51E4               	movf	(??_ReadFrame+3)& (0+255),w,b
  1620  0009B4  223D               	addwfc	_lightperday+1,f,c
  1621                           
  1622                           ;SerialCOM.c: 111: }
  1623  0009B6  D034               	goto	l2395
  1624  0009B8                     l2375:
  1625                           
  1626                           ; BSR set to: 0
  1627                           ;SerialCOM.c: 112: else if (*pointer==firstbyte[3])
  1628  0009B8  C0DF  FFD9         	movff	ReadFrame@pointer,fsr2l
  1629  0009BC  C0E0  FFDA         	movff	ReadFrame@pointer+1,fsr2h
  1630  0009C0  0100               	movlb	0	; () banked
  1631  0009C2  51F4               	movf	(_firstbyte+3)& (0+255),w,b
  1632  0009C4  18DE               	xorwf	postinc2,w,c
  1633  0009C6  A4D8               	btfss	status,2,c
  1634  0009C8  D017               	goto	l2387
  1635                           
  1636                           ; BSR set to: 0
  1637                           ;SerialCOM.c: 113: {
  1638                           ;SerialCOM.c: 114: pointer++;
  1639  0009CA  0100               	movlb	0	; () banked
  1640  0009CC  4BDF               	infsnz	ReadFrame@pointer& (0+255),f,b
  1641  0009CE  2BE0               	incf	(ReadFrame@pointer+1)& (0+255),f,b
  1642                           
  1643                           ; BSR set to: 0
  1644                           ;SerialCOM.c: 115: if(*pointer=='H'){
  1645  0009D0  C0DF  FFD9         	movff	ReadFrame@pointer,fsr2l
  1646  0009D4  C0E0  FFDA         	movff	ReadFrame@pointer+1,fsr2h
  1647  0009D8  0E48               	movlw	72
  1648  0009DA  18DE               	xorwf	postinc2,w,c
  1649  0009DC  B4D8               	btfsc	status,2,c
  1650                           
  1651                           ; BSR set to: 0
  1652                           ;SerialCOM.c: 116: TXREG=actualhumidity;
  1653  0009DE  C02D  FFAD         	movff	_actualhumidity,4013	;volatile
  1654                           
  1655                           ; BSR set to: 0
  1656                           ;SerialCOM.c: 117: }
  1657                           ;SerialCOM.c: 118: if(*pointer=='T'){
  1658                           
  1659                           ; BSR set to: 0
  1660  0009E2  C0DF  FFD9         	movff	ReadFrame@pointer,fsr2l
  1661  0009E6  C0E0  FFDA         	movff	ReadFrame@pointer+1,fsr2h
  1662  0009EA  0E54               	movlw	84
  1663  0009EC  18DE               	xorwf	postinc2,w,c
  1664  0009EE  A4D8               	btfss	status,2,c
  1665  0009F0  D017               	goto	l2395
  1666                           
  1667                           ; BSR set to: 0
  1668                           ;SerialCOM.c: 119: TXREG=actualtemperature;
  1669  0009F2  C02E  FFAD         	movff	_actualtemperature,4013	;volatile
  1670                           
  1671                           ; BSR set to: 0
  1672                           ;SerialCOM.c: 120: }
  1673                           ;SerialCOM.c: 121: }
  1674  0009F6  D014               	goto	l2395
  1675  0009F8                     l2387:
  1676                           
  1677                           ; BSR set to: 0
  1678                           ;SerialCOM.c: 122: else if (*pointer==firstbyte[4])
  1679  0009F8  C0DF  FFD9         	movff	ReadFrame@pointer,fsr2l
  1680  0009FC  C0E0  FFDA         	movff	ReadFrame@pointer+1,fsr2h
  1681  000A00  0100               	movlb	0	; () banked
  1682  000A02  51F5               	movf	(_firstbyte+4)& (0+255),w,b
  1683  000A04  18DE               	xorwf	postinc2,w,c
  1684  000A06  A4D8               	btfss	status,2,c
  1685  000A08  D00B               	goto	l2395
  1686                           
  1687                           ; BSR set to: 0
  1688                           ;SerialCOM.c: 123: {
  1689                           ;SerialCOM.c: 124: pointer++;
  1690  000A0A  0100               	movlb	0	; () banked
  1691  000A0C  4BDF               	infsnz	ReadFrame@pointer& (0+255),f,b
  1692  000A0E  2BE0               	incf	(ReadFrame@pointer+1)& (0+255),f,b
  1693                           
  1694                           ; BSR set to: 0
  1695                           ;SerialCOM.c: 125: if(*pointer=='F'){
  1696  000A10  C0DF  FFD9         	movff	ReadFrame@pointer,fsr2l
  1697  000A14  C0E0  FFDA         	movff	ReadFrame@pointer+1,fsr2h
  1698  000A18  0E46               	movlw	70
  1699  000A1A  18DE               	xorwf	postinc2,w,c
  1700  000A1C  B4D8               	btfsc	status,2,c
  1701                           
  1702                           ; BSR set to: 0
  1703                           ;SerialCOM.c: 126: (LATA3=0U);
  1704  000A1E  9689               	bcf	3977,3,c	;volatile
  1705  000A20                     l2395:
  1706                           
  1707                           ;SerialCOM.c: 127: }
  1708                           ;SerialCOM.c: 128: }
  1709                           ;SerialCOM.c: 132: for(counter = 0;counter<=14;counter++)
  1710  000A20  0E00               	movlw	0
  1711  000A22  6E31               	movwf	_counter,c
  1712  000A24                     l2397:
  1713  000A24  0E0E               	movlw	14
  1714  000A26  6431               	cpfsgt	_counter,c
  1715  000A28  D001               	goto	l2401
  1716  000A2A  0012               	return	
  1717  000A2C                     l2401:
  1718                           
  1719                           ;SerialCOM.c: 133: {
  1720                           ;SerialCOM.c: 134: RecievedData[counter]='\0';
  1721  000A2C  5031               	movf	_counter,w,c
  1722  000A2E  0D01               	mullw	1
  1723  000A30  0EBE               	movlw	low _RecievedData
  1724  000A32  24F3               	addwf	prodl,w,c
  1725  000A34  6ED9               	movwf	fsr2l,c
  1726  000A36  0E00               	movlw	high _RecievedData
  1727  000A38  20F4               	addwfc	prodh,w,c
  1728  000A3A  6EDA               	movwf	fsr2h,c
  1729  000A3C  0E00               	movlw	0
  1730  000A3E  6EDF               	movwf	indf2,c
  1731  000A40  2A31               	incf	_counter,f,c
  1732  000A42  D7F0               	goto	l2397
  1733  000A44                     __end_of_ReadFrame:
  1734                           	opt stack 0
  1735                           tblptru	equ	0xFF8
  1736                           tblptrh	equ	0xFF7
  1737                           tblptrl	equ	0xFF6
  1738                           tablat	equ	0xFF5
  1739                           prodh	equ	0xFF4
  1740                           prodl	equ	0xFF3
  1741                           intcon	equ	0xFF2
  1742                           postinc0	equ	0xFEE
  1743                           wreg	equ	0xFE8
  1744                           postdec1	equ	0xFE5
  1745                           fsr1l	equ	0xFE1
  1746                           indf2	equ	0xFDF
  1747                           postinc2	equ	0xFDE
  1748                           fsr2h	equ	0xFDA
  1749                           fsr2l	equ	0xFD9
  1750                           status	equ	0xFD8
  1751                           
  1752 ;; *************** function _TurnOnLights *****************
  1753 ;; Defined at:
  1754 ;;		line 12 in file "LedDriver.c"
  1755 ;; Parameters:    Size  Location     Type
  1756 ;;		None
  1757 ;; Auto vars:     Size  Location     Type
  1758 ;;		None
  1759 ;; Return value:  Size  Location     Type
  1760 ;;                  2   16[None  ] int 
  1761 ;; Registers used:
  1762 ;;		wreg, status,2, status,0, prodl, prodh, cstack
  1763 ;; Tracked objects:
  1764 ;;		On entry : 0/0
  1765 ;;		On exit  : 0/0
  1766 ;;		Unchanged: 0/0
  1767 ;; Data sizes:     COMRAM   BANK0   BANK1   BANK2   BANK3   BANK4   BANK5   BANK6   BANK7
  1768 ;;      Params:         0       0       0       0       0       0       0       0       0
  1769 ;;      Locals:         0       0       0       0       0       0       0       0       0
  1770 ;;      Temps:          0       0       0       0       0       0       0       0       0
  1771 ;;      Totals:         0       0       0       0       0       0       0       0       0
  1772 ;;Total ram usage:        0 bytes
  1773 ;; Hardware stack levels used:    1
  1774 ;; Hardware stack levels required when called:    8
  1775 ;; This function calls:
  1776 ;;		_SetPWM
  1777 ;;		_StartPWM
  1778 ;; This function is called by:
  1779 ;;		_main
  1780 ;;		_ReadFrame
  1781 ;; This function uses a non-reentrant model
  1782 ;;
  1783                           
  1784                           	psect	text8
  1785  001122                     __ptext8:
  1786                           	opt stack 0
  1787  001122                     _TurnOnLights:
  1788                           	opt stack 22
  1789                           
  1790                           ;LedDriver.c: 13: if(!lightstate_f){
  1791                           
  1792                           ;incstack = 0
  1793  001122  B03B               	btfsc	_lightstate_f/(0+8),_lightstate_f& (0+7),c
  1794  001124  0012               	return	
  1795                           
  1796                           ;LedDriver.c: 14: SetPWM(50);
  1797  001126  0E32               	movlw	50
  1798  001128  EC77  F008         	call	_SetPWM
  1799                           
  1800                           ;LedDriver.c: 15: StartPWM();
  1801  00112C  EC00  F009         	call	_StartPWM	;wreg free
  1802                           
  1803                           ;LedDriver.c: 16: lightstate_f=1;
  1804  001130  803B               	bsf	_lightstate_f/(0+8),_lightstate_f& (0+7),c
  1805  001132  0012               	return	
  1806  001134                     __end_of_TurnOnLights:
  1807                           	opt stack 0
  1808                           tblptru	equ	0xFF8
  1809                           tblptrh	equ	0xFF7
  1810                           tblptrl	equ	0xFF6
  1811                           tablat	equ	0xFF5
  1812                           prodh	equ	0xFF4
  1813                           prodl	equ	0xFF3
  1814                           intcon	equ	0xFF2
  1815                           postinc0	equ	0xFEE
  1816                           wreg	equ	0xFE8
  1817                           postdec1	equ	0xFE5
  1818                           fsr1l	equ	0xFE1
  1819                           indf2	equ	0xFDF
  1820                           postinc2	equ	0xFDE
  1821                           fsr2h	equ	0xFDA
  1822                           fsr2l	equ	0xFD9
  1823                           status	equ	0xFD8
  1824                           
  1825 ;; *************** function _StartPWM *****************
  1826 ;; Defined at:
  1827 ;;		line 17 in file "PWM.c"
  1828 ;; Parameters:    Size  Location     Type
  1829 ;;		None
  1830 ;; Auto vars:     Size  Location     Type
  1831 ;;		None
  1832 ;; Return value:  Size  Location     Type
  1833 ;;                  1    wreg      void 
  1834 ;; Registers used:
  1835 ;;		wreg, status,2
  1836 ;; Tracked objects:
  1837 ;;		On entry : 0/0
  1838 ;;		On exit  : 0/0
  1839 ;;		Unchanged: 0/0
  1840 ;; Data sizes:     COMRAM   BANK0   BANK1   BANK2   BANK3   BANK4   BANK5   BANK6   BANK7
  1841 ;;      Params:         0       0       0       0       0       0       0       0       0
  1842 ;;      Locals:         0       0       0       0       0       0       0       0       0
  1843 ;;      Temps:          0       0       0       0       0       0       0       0       0
  1844 ;;      Totals:         0       0       0       0       0       0       0       0       0
  1845 ;;Total ram usage:        0 bytes
  1846 ;; Hardware stack levels used:    1
  1847 ;; Hardware stack levels required when called:    5
  1848 ;; This function calls:
  1849 ;;		Nothing
  1850 ;; This function is called by:
  1851 ;;		_TurnOnLights
  1852 ;; This function uses a non-reentrant model
  1853 ;;
  1854                           
  1855                           	psect	text9
  1856  001200                     __ptext9:
  1857                           	opt stack 0
  1858  001200                     _StartPWM:
  1859                           	opt stack 24
  1860                           
  1861                           ;PWM.c: 18: CCP2CON=0x0C;
  1862                           
  1863                           ;incstack = 0
  1864  001200  0E0C               	movlw	12
  1865  001202  6EBA               	movwf	4026,c	;volatile
  1866                           
  1867                           ;PWM.c: 19: T1OSCEN=1U;
  1868  001204  86CD               	bsf	4045,3,c	;volatile
  1869  001206  0012               	return		;funcret
  1870  001208                     __end_of_StartPWM:
  1871                           	opt stack 0
  1872                           tblptru	equ	0xFF8
  1873                           tblptrh	equ	0xFF7
  1874                           tblptrl	equ	0xFF6
  1875                           tablat	equ	0xFF5
  1876                           prodh	equ	0xFF4
  1877                           prodl	equ	0xFF3
  1878                           intcon	equ	0xFF2
  1879                           postinc0	equ	0xFEE
  1880                           wreg	equ	0xFE8
  1881                           postdec1	equ	0xFE5
  1882                           fsr1l	equ	0xFE1
  1883                           indf2	equ	0xFDF
  1884                           postinc2	equ	0xFDE
  1885                           fsr2h	equ	0xFDA
  1886                           fsr2l	equ	0xFD9
  1887                           status	equ	0xFD8
  1888                           
  1889 ;; *************** function _SetPWM *****************
  1890 ;; Defined at:
  1891 ;;		line 44 in file "PWM.c"
  1892 ;; Parameters:    Size  Location     Type
  1893 ;;  dutycycle       1    wreg     unsigned char 
  1894 ;; Auto vars:     Size  Location     Type
  1895 ;;  dutycycle       1   17[BANK0 ] unsigned char 
  1896 ;; Return value:  Size  Location     Type
  1897 ;;                  1    wreg      void 
  1898 ;; Registers used:
  1899 ;;		wreg, status,2, status,0, prodl, prodh, cstack
  1900 ;; Tracked objects:
  1901 ;;		On entry : 0/0
  1902 ;;		On exit  : 0/0
  1903 ;;		Unchanged: 0/0
  1904 ;; Data sizes:     COMRAM   BANK0   BANK1   BANK2   BANK3   BANK4   BANK5   BANK6   BANK7
  1905 ;;      Params:         0       0       0       0       0       0       0       0       0
  1906 ;;      Locals:         0       1       0       0       0       0       0       0       0
  1907 ;;      Temps:          0       0       0       0       0       0       0       0       0
  1908 ;;      Totals:         0       1       0       0       0       0       0       0       0
  1909 ;;Total ram usage:        1 bytes
  1910 ;; Hardware stack levels used:    1
  1911 ;; Hardware stack levels required when called:    7
  1912 ;; This function calls:
  1913 ;;		_SetDutyCycle
  1914 ;;		_SetPeriod
  1915 ;; This function is called by:
  1916 ;;		_TurnOnLights
  1917 ;; This function uses a non-reentrant model
  1918 ;;
  1919                           
  1920                           	psect	text10
  1921  0010EE                     __ptext10:
  1922                           	opt stack 0
  1923  0010EE                     _SetPWM:
  1924                           	opt stack 22
  1925                           
  1926                           ;incstack = 0
  1927                           ;SetPWM@dutycycle stored from wreg
  1928  0010EE  0100               	movlb	0	; () banked
  1929  0010F0  6FDE               	movwf	SetPWM@dutycycle& (0+255),b
  1930                           
  1931                           ;PWM.c: 45: T2CON=0x00;
  1932  0010F2  0E00               	movlw	0
  1933  0010F4  6ECA               	movwf	4042,c	;volatile
  1934                           
  1935                           ;PWM.c: 46: SetPeriod();
  1936  0010F6  EC10  F009         	call	_SetPeriod	;wreg free
  1937                           
  1938                           ;PWM.c: 47: SetDutyCycle(dutycycle);
  1939  0010FA  0100               	movlb	0	; () banked
  1940  0010FC  51DE               	movf	SetPWM@dutycycle& (0+255),w,b
  1941  0010FE  ECF2  F006         	call	_SetDutyCycle
  1942                           
  1943                           ;PWM.c: 48: (TRISBbits.TRISB3 = 0);
  1944  001102  9693               	bcf	3987,3,c	;volatile
  1945                           
  1946                           ;PWM.c: 49: T2CON=0b110;
  1947  001104  0E06               	movlw	6
  1948  001106  6ECA               	movwf	4042,c	;volatile
  1949  001108  0012               	return		;funcret
  1950  00110A                     __end_of_SetPWM:
  1951                           	opt stack 0
  1952                           tblptru	equ	0xFF8
  1953                           tblptrh	equ	0xFF7
  1954                           tblptrl	equ	0xFF6
  1955                           tablat	equ	0xFF5
  1956                           prodh	equ	0xFF4
  1957                           prodl	equ	0xFF3
  1958                           intcon	equ	0xFF2
  1959                           postinc0	equ	0xFEE
  1960                           wreg	equ	0xFE8
  1961                           postdec1	equ	0xFE5
  1962                           fsr1l	equ	0xFE1
  1963                           indf2	equ	0xFDF
  1964                           postinc2	equ	0xFDE
  1965                           fsr2h	equ	0xFDA
  1966                           fsr2l	equ	0xFD9
  1967                           status	equ	0xFD8
  1968                           
  1969 ;; *************** function _SetPeriod *****************
  1970 ;; Defined at:
  1971 ;;		line 28 in file "PWM.c"
  1972 ;; Parameters:    Size  Location     Type
  1973 ;;		None
  1974 ;; Auto vars:     Size  Location     Type
  1975 ;;		None
  1976 ;; Return value:  Size  Location     Type
  1977 ;;                  1    wreg      void 
  1978 ;; Registers used:
  1979 ;;		wreg, status,2
  1980 ;; Tracked objects:
  1981 ;;		On entry : 0/0
  1982 ;;		On exit  : 0/0
  1983 ;;		Unchanged: 0/0
  1984 ;; Data sizes:     COMRAM   BANK0   BANK1   BANK2   BANK3   BANK4   BANK5   BANK6   BANK7
  1985 ;;      Params:         0       0       0       0       0       0       0       0       0
  1986 ;;      Locals:         0       0       0       0       0       0       0       0       0
  1987 ;;      Temps:          0       0       0       0       0       0       0       0       0
  1988 ;;      Totals:         0       0       0       0       0       0       0       0       0
  1989 ;;Total ram usage:        0 bytes
  1990 ;; Hardware stack levels used:    1
  1991 ;; Hardware stack levels required when called:    5
  1992 ;; This function calls:
  1993 ;;		Nothing
  1994 ;; This function is called by:
  1995 ;;		_SetPWM
  1996 ;; This function uses a non-reentrant model
  1997 ;;
  1998                           
  1999                           	psect	text11
  2000  001220                     __ptext11:
  2001                           	opt stack 0
  2002  001220                     _SetPeriod:
  2003                           	opt stack 23
  2004                           
  2005                           ;PWM.c: 30: PR2=200;
  2006                           
  2007                           ;incstack = 0
  2008  001220  0EC8               	movlw	200
  2009  001222  6ECB               	movwf	4043,c	;volatile
  2010  001224  0012               	return		;funcret
  2011  001226                     __end_of_SetPeriod:
  2012                           	opt stack 0
  2013                           tblptru	equ	0xFF8
  2014                           tblptrh	equ	0xFF7
  2015                           tblptrl	equ	0xFF6
  2016                           tablat	equ	0xFF5
  2017                           prodh	equ	0xFF4
  2018                           prodl	equ	0xFF3
  2019                           intcon	equ	0xFF2
  2020                           postinc0	equ	0xFEE
  2021                           wreg	equ	0xFE8
  2022                           postdec1	equ	0xFE5
  2023                           fsr1l	equ	0xFE1
  2024                           indf2	equ	0xFDF
  2025                           postinc2	equ	0xFDE
  2026                           fsr2h	equ	0xFDA
  2027                           fsr2l	equ	0xFD9
  2028                           status	equ	0xFD8
  2029                           
  2030 ;; *************** function _SetDutyCycle *****************
  2031 ;; Defined at:
  2032 ;;		line 33 in file "PWM.c"
  2033 ;; Parameters:    Size  Location     Type
  2034 ;;  dutycycle       1    wreg     unsigned char 
  2035 ;; Auto vars:     Size  Location     Type
  2036 ;;  dutycycle       1   16[BANK0 ] unsigned char 
  2037 ;; Return value:  Size  Location     Type
  2038 ;;                  1    wreg      void 
  2039 ;; Registers used:
  2040 ;;		wreg, status,2, status,0, prodl, prodh, cstack
  2041 ;; Tracked objects:
  2042 ;;		On entry : 0/0
  2043 ;;		On exit  : 0/0
  2044 ;;		Unchanged: 0/0
  2045 ;; Data sizes:     COMRAM   BANK0   BANK1   BANK2   BANK3   BANK4   BANK5   BANK6   BANK7
  2046 ;;      Params:         0       0       0       0       0       0       0       0       0
  2047 ;;      Locals:         0       1       0       0       0       0       0       0       0
  2048 ;;      Temps:          0       2       0       0       0       0       0       0       0
  2049 ;;      Totals:         0       3       0       0       0       0       0       0       0
  2050 ;;Total ram usage:        3 bytes
  2051 ;; Hardware stack levels used:    1
  2052 ;; Hardware stack levels required when called:    6
  2053 ;; This function calls:
  2054 ;;		___awdiv
  2055 ;;		___wmul
  2056 ;; This function is called by:
  2057 ;;		_SetPWM
  2058 ;; This function uses a non-reentrant model
  2059 ;;
  2060                           
  2061                           	psect	text12
  2062  000DE4                     __ptext12:
  2063                           	opt stack 0
  2064  000DE4                     _SetDutyCycle:
  2065                           	opt stack 22
  2066                           
  2067                           ;incstack = 0
  2068                           ;SetDutyCycle@dutycycle stored from wreg
  2069  000DE4  0100               	movlb	0	; () banked
  2070  000DE6  6FDD               	movwf	SetDutyCycle@dutycycle& (0+255),b
  2071                           
  2072                           ;PWM.c: 34: PWMValue=((dutycycle)*470)/100;
  2073  000DE8  C0DD  F0CD         	movff	SetDutyCycle@dutycycle,___wmul@multiplier
  2074  000DEC  0100               	movlb	0	; () banked
  2075  000DEE  6BCE               	clrf	(___wmul@multiplier+1)& (0+255),b
  2076  000DF0  0E01               	movlw	1
  2077  000DF2  0100               	movlb	0	; () banked
  2078  000DF4  6FD0               	movwf	(___wmul@multiplicand+1)& (0+255),b
  2079  000DF6  0ED6               	movlw	214
  2080  000DF8  6FCF               	movwf	___wmul@multiplicand& (0+255),b
  2081  000DFA  ECFF  F007         	call	___wmul	;wreg free
  2082  000DFE  C0CD  F0D3         	movff	?___wmul,___awdiv@dividend
  2083  000E02  C0CE  F0D4         	movff	?___wmul+1,___awdiv@dividend+1
  2084  000E06  0E00               	movlw	0
  2085  000E08  0100               	movlb	0	; () banked
  2086  000E0A  6FD6               	movwf	(___awdiv@divisor+1)& (0+255),b
  2087  000E0C  0E64               	movlw	100
  2088  000E0E  6FD5               	movwf	___awdiv@divisor& (0+255),b
  2089  000E10  EC03  F006         	call	___awdiv	;wreg free
  2090  000E14  C0D3  F023         	movff	?___awdiv,_PWMValue
  2091  000E18  C0D4  F024         	movff	?___awdiv+1,_PWMValue+1
  2092                           
  2093                           ;PWM.c: 35: LSb=PWMValue&0x03;
  2094  000E1C  0E03               	movlw	3
  2095  000E1E  1423               	andwf	_PWMValue,w,c
  2096  000E20  0100               	movlb	0	; () banked
  2097  000E22  6FB0               	movwf	_LSb& (0+255),b
  2098  000E24  0100               	movlb	0	; () banked
  2099  000E26  6BB1               	clrf	(_LSb+1)& (0+255),b
  2100                           
  2101                           ; BSR set to: 0
  2102                           ;PWM.c: 36: MSb=PWMValue>>2;
  2103  000E28  C023  F0DB         	movff	_PWMValue,??_SetDutyCycle
  2104  000E2C  C024  F0DC         	movff	_PWMValue+1,??_SetDutyCycle+1
  2105  000E30  0100               	movlb	0	; () banked
  2106  000E32  90D8               	bcf	status,0,c
  2107  000E34  33DC               	rrcf	(??_SetDutyCycle+1)& (0+255),f,b
  2108  000E36  33DB               	rrcf	??_SetDutyCycle& (0+255),f,b
  2109  000E38  0100               	movlb	0	; () banked
  2110  000E3A  90D8               	bcf	status,0,c
  2111  000E3C  33DC               	rrcf	(??_SetDutyCycle+1)& (0+255),f,b
  2112  000E3E  33DB               	rrcf	??_SetDutyCycle& (0+255),f,b
  2113  000E40  C0DB  F0B4         	movff	??_SetDutyCycle,_MSb
  2114  000E44  C0DC  F0B5         	movff	??_SetDutyCycle+1,_MSb+1
  2115                           
  2116                           ; BSR set to: 0
  2117                           ;PWM.c: 38: CCPR2L=MSb;
  2118  000E48  C0B4  FFBB         	movff	_MSb,4027	;volatile
  2119                           
  2120                           ; BSR set to: 0
  2121                           ;PWM.c: 39: CCP2CON=CCP2CON|(LSb<<4);
  2122  000E4C  0100               	movlb	0	; () banked
  2123  000E4E  39B0               	swapf	_LSb& (0+255),w,b
  2124  000E50  0BF0               	andlw	240
  2125  000E52  10BA               	iorwf	4026,w,c
  2126  000E54  6EBA               	movwf	4026,c	;volatile
  2127                           
  2128                           ; BSR set to: 0
  2129  000E56  0012               	return		;funcret
  2130  000E58                     __end_of_SetDutyCycle:
  2131                           	opt stack 0
  2132                           tblptru	equ	0xFF8
  2133                           tblptrh	equ	0xFF7
  2134                           tblptrl	equ	0xFF6
  2135                           tablat	equ	0xFF5
  2136                           prodh	equ	0xFF4
  2137                           prodl	equ	0xFF3
  2138                           intcon	equ	0xFF2
  2139                           postinc0	equ	0xFEE
  2140                           wreg	equ	0xFE8
  2141                           postdec1	equ	0xFE5
  2142                           fsr1l	equ	0xFE1
  2143                           indf2	equ	0xFDF
  2144                           postinc2	equ	0xFDE
  2145                           fsr2h	equ	0xFDA
  2146                           fsr2l	equ	0xFD9
  2147                           status	equ	0xFD8
  2148                           
  2149 ;; *************** function ___wmul *****************
  2150 ;; Defined at:
  2151 ;;		line 15 in file "C:\Program Files (x86)\Microchip\xc8\v1.36\sources\common\Umul16.c"
  2152 ;; Parameters:    Size  Location     Type
  2153 ;;  multiplier      2    0[BANK0 ] unsigned int 
  2154 ;;  multiplicand    2    2[BANK0 ] unsigned int 
  2155 ;; Auto vars:     Size  Location     Type
  2156 ;;  product         2    4[BANK0 ] unsigned int 
  2157 ;; Return value:  Size  Location     Type
  2158 ;;                  2    0[BANK0 ] unsigned int 
  2159 ;; Registers used:
  2160 ;;		wreg, status,2, status,0, prodl, prodh
  2161 ;; Tracked objects:
  2162 ;;		On entry : 0/0
  2163 ;;		On exit  : 0/0
  2164 ;;		Unchanged: 0/0
  2165 ;; Data sizes:     COMRAM   BANK0   BANK1   BANK2   BANK3   BANK4   BANK5   BANK6   BANK7
  2166 ;;      Params:         0       4       0       0       0       0       0       0       0
  2167 ;;      Locals:         0       2       0       0       0       0       0       0       0
  2168 ;;      Temps:          0       0       0       0       0       0       0       0       0
  2169 ;;      Totals:         0       6       0       0       0       0       0       0       0
  2170 ;;Total ram usage:        6 bytes
  2171 ;; Hardware stack levels used:    1
  2172 ;; Hardware stack levels required when called:    5
  2173 ;; This function calls:
  2174 ;;		Nothing
  2175 ;; This function is called by:
  2176 ;;		_SetDutyCycle
  2177 ;;		_ReadFrame
  2178 ;; This function uses a non-reentrant model
  2179 ;;
  2180                           
  2181                           	psect	text13
  2182  000FFE                     __ptext13:
  2183                           	opt stack 0
  2184  000FFE                     ___wmul:
  2185                           	opt stack 22
  2186                           
  2187                           ; BSR set to: 0
  2188                           ;incstack = 0
  2189  000FFE  0100               	movlb	0	; () banked
  2190  001000  51CD               	movf	___wmul@multiplier& (0+255),w,b
  2191  001002  0100               	movlb	0	; () banked
  2192  001004  03CF               	mulwf	___wmul@multiplicand& (0+255),b
  2193  001006  CFF3 F0D1          	movff	prodl,___wmul@product
  2194  00100A  CFF4 F0D2          	movff	prodh,___wmul@product+1
  2195  00100E  0100               	movlb	0	; () banked
  2196  001010  51CD               	movf	___wmul@multiplier& (0+255),w,b
  2197  001012  0100               	movlb	0	; () banked
  2198  001014  03D0               	mulwf	(___wmul@multiplicand+1)& (0+255),b
  2199  001016  50F3               	movf	prodl,w,c
  2200  001018  0100               	movlb	0	; () banked
  2201  00101A  27D2               	addwf	(___wmul@product+1)& (0+255),f,b
  2202  00101C  0100               	movlb	0	; () banked
  2203  00101E  51CE               	movf	(___wmul@multiplier+1)& (0+255),w,b
  2204  001020  0100               	movlb	0	; () banked
  2205  001022  03CF               	mulwf	___wmul@multiplicand& (0+255),b
  2206  001024  50F3               	movf	prodl,w,c
  2207  001026  0100               	movlb	0	; () banked
  2208  001028  27D2               	addwf	(___wmul@product+1)& (0+255),f,b
  2209                           
  2210                           ; BSR set to: 0
  2211  00102A  C0D1  F0CD         	movff	___wmul@product,?___wmul
  2212  00102E  C0D2  F0CE         	movff	___wmul@product+1,?___wmul+1
  2213  001032  0012               	return	
  2214  001034                     __end_of___wmul:
  2215                           	opt stack 0
  2216                           tblptru	equ	0xFF8
  2217                           tblptrh	equ	0xFF7
  2218                           tblptrl	equ	0xFF6
  2219                           tablat	equ	0xFF5
  2220                           prodh	equ	0xFF4
  2221                           prodl	equ	0xFF3
  2222                           intcon	equ	0xFF2
  2223                           postinc0	equ	0xFEE
  2224                           wreg	equ	0xFE8
  2225                           postdec1	equ	0xFE5
  2226                           fsr1l	equ	0xFE1
  2227                           indf2	equ	0xFDF
  2228                           postinc2	equ	0xFDE
  2229                           fsr2h	equ	0xFDA
  2230                           fsr2l	equ	0xFD9
  2231                           status	equ	0xFD8
  2232                           
  2233 ;; *************** function ___awdiv *****************
  2234 ;; Defined at:
  2235 ;;		line 8 in file "C:\Program Files (x86)\Microchip\xc8\v1.36\sources\common\awdiv.c"
  2236 ;; Parameters:    Size  Location     Type
  2237 ;;  dividend        2    6[BANK0 ] int 
  2238 ;;  divisor         2    8[BANK0 ] int 
  2239 ;; Auto vars:     Size  Location     Type
  2240 ;;  quotient        2   12[BANK0 ] int 
  2241 ;;  sign            1   11[BANK0 ] unsigned char 
  2242 ;;  counter         1   10[BANK0 ] unsigned char 
  2243 ;; Return value:  Size  Location     Type
  2244 ;;                  2    6[BANK0 ] int 
  2245 ;; Registers used:
  2246 ;;		wreg, status,2, status,0
  2247 ;; Tracked objects:
  2248 ;;		On entry : 0/0
  2249 ;;		On exit  : 0/0
  2250 ;;		Unchanged: 0/0
  2251 ;; Data sizes:     COMRAM   BANK0   BANK1   BANK2   BANK3   BANK4   BANK5   BANK6   BANK7
  2252 ;;      Params:         0       4       0       0       0       0       0       0       0
  2253 ;;      Locals:         0       4       0       0       0       0       0       0       0
  2254 ;;      Temps:          0       0       0       0       0       0       0       0       0
  2255 ;;      Totals:         0       8       0       0       0       0       0       0       0
  2256 ;;Total ram usage:        8 bytes
  2257 ;; Hardware stack levels used:    1
  2258 ;; Hardware stack levels required when called:    5
  2259 ;; This function calls:
  2260 ;;		Nothing
  2261 ;; This function is called by:
  2262 ;;		_SetDutyCycle
  2263 ;; This function uses a non-reentrant model
  2264 ;;
  2265                           
  2266                           	psect	text14
  2267  000C06                     __ptext14:
  2268                           	opt stack 0
  2269  000C06                     ___awdiv:
  2270                           	opt stack 22
  2271                           
  2272                           ; BSR set to: 0
  2273                           ;incstack = 0
  2274  000C06  0E00               	movlw	0
  2275  000C08  0100               	movlb	0	; () banked
  2276  000C0A  6FD8               	movwf	___awdiv@sign& (0+255),b
  2277                           
  2278                           ; BSR set to: 0
  2279  000C0C  0100               	movlb	0	; () banked
  2280  000C0E  AFD6               	btfss	(___awdiv@divisor+1)& (0+255),7,b
  2281  000C10  D008               	goto	l2171
  2282                           
  2283                           ; BSR set to: 0
  2284  000C12  0100               	movlb	0	; () banked
  2285  000C14  6DD5               	negf	___awdiv@divisor& (0+255),b
  2286  000C16  1FD6               	comf	(___awdiv@divisor+1)& (0+255),f,b
  2287  000C18  B0D8               	btfsc	status,0,c
  2288  000C1A  2BD6               	incf	(___awdiv@divisor+1)& (0+255),f,b
  2289                           
  2290                           ; BSR set to: 0
  2291  000C1C  0E01               	movlw	1
  2292  000C1E  0100               	movlb	0	; () banked
  2293  000C20  6FD8               	movwf	___awdiv@sign& (0+255),b
  2294  000C22                     l2171:
  2295                           
  2296                           ; BSR set to: 0
  2297  000C22  0100               	movlb	0	; () banked
  2298  000C24  AFD4               	btfss	(___awdiv@dividend+1)& (0+255),7,b
  2299  000C26  D008               	goto	l2177
  2300                           
  2301                           ; BSR set to: 0
  2302  000C28  0100               	movlb	0	; () banked
  2303  000C2A  6DD3               	negf	___awdiv@dividend& (0+255),b
  2304  000C2C  1FD4               	comf	(___awdiv@dividend+1)& (0+255),f,b
  2305  000C2E  B0D8               	btfsc	status,0,c
  2306  000C30  2BD4               	incf	(___awdiv@dividend+1)& (0+255),f,b
  2307                           
  2308                           ; BSR set to: 0
  2309  000C32  0E01               	movlw	1
  2310  000C34  0100               	movlb	0	; () banked
  2311  000C36  1BD8               	xorwf	___awdiv@sign& (0+255),f,b
  2312  000C38                     l2177:
  2313                           
  2314                           ; BSR set to: 0
  2315  000C38  0E00               	movlw	0
  2316  000C3A  0100               	movlb	0	; () banked
  2317  000C3C  6FDA               	movwf	(___awdiv@quotient+1)& (0+255),b
  2318  000C3E  0E00               	movlw	0
  2319  000C40  6FD9               	movwf	___awdiv@quotient& (0+255),b
  2320                           
  2321                           ; BSR set to: 0
  2322  000C42  0100               	movlb	0	; () banked
  2323  000C44  51D5               	movf	___awdiv@divisor& (0+255),w,b
  2324  000C46  0100               	movlb	0	; () banked
  2325  000C48  11D6               	iorwf	(___awdiv@divisor+1)& (0+255),w,b
  2326  000C4A  B4D8               	btfsc	status,2,c
  2327  000C4C  D02C               	goto	l2199
  2328                           
  2329                           ; BSR set to: 0
  2330  000C4E  0E01               	movlw	1
  2331  000C50  0100               	movlb	0	; () banked
  2332  000C52  6FD7               	movwf	___awdiv@counter& (0+255),b
  2333  000C54  D006               	goto	l2185
  2334  000C56                     l2183:
  2335                           
  2336                           ; BSR set to: 0
  2337  000C56  0100               	movlb	0	; () banked
  2338  000C58  90D8               	bcf	status,0,c
  2339  000C5A  37D5               	rlcf	___awdiv@divisor& (0+255),f,b
  2340  000C5C  37D6               	rlcf	(___awdiv@divisor+1)& (0+255),f,b
  2341  000C5E  0100               	movlb	0	; () banked
  2342  000C60  2BD7               	incf	___awdiv@counter& (0+255),f,b
  2343  000C62                     l2185:
  2344                           
  2345                           ; BSR set to: 0
  2346  000C62  0100               	movlb	0	; () banked
  2347  000C64  AFD6               	btfss	(___awdiv@divisor+1)& (0+255),7,b
  2348  000C66  D7F7               	goto	l2183
  2349  000C68                     l2187:
  2350                           
  2351                           ; BSR set to: 0
  2352  000C68  0100               	movlb	0	; () banked
  2353  000C6A  90D8               	bcf	status,0,c
  2354  000C6C  37D9               	rlcf	___awdiv@quotient& (0+255),f,b
  2355  000C6E  37DA               	rlcf	(___awdiv@quotient+1)& (0+255),f,b
  2356                           
  2357                           ; BSR set to: 0
  2358  000C70  0100               	movlb	0	; () banked
  2359  000C72  51D5               	movf	___awdiv@divisor& (0+255),w,b
  2360  000C74  0100               	movlb	0	; () banked
  2361  000C76  5DD3               	subwf	___awdiv@dividend& (0+255),w,b
  2362  000C78  0100               	movlb	0	; () banked
  2363  000C7A  51D6               	movf	(___awdiv@divisor+1)& (0+255),w,b
  2364  000C7C  0100               	movlb	0	; () banked
  2365  000C7E  59D4               	subwfb	(___awdiv@dividend+1)& (0+255),w,b
  2366  000C80  A0D8               	btfss	status,0,c
  2367  000C82  D00A               	goto	l2195
  2368                           
  2369                           ; BSR set to: 0
  2370  000C84  0100               	movlb	0	; () banked
  2371  000C86  51D5               	movf	___awdiv@divisor& (0+255),w,b
  2372  000C88  0100               	movlb	0	; () banked
  2373  000C8A  5FD3               	subwf	___awdiv@dividend& (0+255),f,b
  2374  000C8C  0100               	movlb	0	; () banked
  2375  000C8E  51D6               	movf	(___awdiv@divisor+1)& (0+255),w,b
  2376  000C90  0100               	movlb	0	; () banked
  2377  000C92  5BD4               	subwfb	(___awdiv@dividend+1)& (0+255),f,b
  2378                           
  2379                           ; BSR set to: 0
  2380  000C94  0100               	movlb	0	; () banked
  2381  000C96  81D9               	bsf	___awdiv@quotient& (0+255),0,b
  2382  000C98                     l2195:
  2383                           
  2384                           ; BSR set to: 0
  2385  000C98  0100               	movlb	0	; () banked
  2386  000C9A  90D8               	bcf	status,0,c
  2387  000C9C  33D6               	rrcf	(___awdiv@divisor+1)& (0+255),f,b
  2388  000C9E  33D5               	rrcf	___awdiv@divisor& (0+255),f,b
  2389                           
  2390                           ; BSR set to: 0
  2391  000CA0  0100               	movlb	0	; () banked
  2392  000CA2  2FD7               	decfsz	___awdiv@counter& (0+255),f,b
  2393  000CA4  D7E1               	goto	l2187
  2394  000CA6                     l2199:
  2395                           
  2396                           ; BSR set to: 0
  2397  000CA6  0100               	movlb	0	; () banked
  2398  000CA8  51D8               	movf	___awdiv@sign& (0+255),w,b
  2399  000CAA  0100               	movlb	0	; () banked
  2400  000CAC  B4D8               	btfsc	status,2,c
  2401  000CAE  D005               	goto	l2203
  2402                           
  2403                           ; BSR set to: 0
  2404  000CB0  0100               	movlb	0	; () banked
  2405  000CB2  6DD9               	negf	___awdiv@quotient& (0+255),b
  2406  000CB4  1FDA               	comf	(___awdiv@quotient+1)& (0+255),f,b
  2407  000CB6  B0D8               	btfsc	status,0,c
  2408  000CB8  2BDA               	incf	(___awdiv@quotient+1)& (0+255),f,b
  2409  000CBA                     l2203:
  2410                           
  2411                           ; BSR set to: 0
  2412  000CBA  C0D9  F0D3         	movff	___awdiv@quotient,?___awdiv
  2413  000CBE  C0DA  F0D4         	movff	___awdiv@quotient+1,?___awdiv+1
  2414  000CC2  0012               	return	
  2415  000CC4                     __end_of___awdiv:
  2416                           	opt stack 0
  2417                           tblptru	equ	0xFF8
  2418                           tblptrh	equ	0xFF7
  2419                           tblptrl	equ	0xFF6
  2420                           tablat	equ	0xFF5
  2421                           prodh	equ	0xFF4
  2422                           prodl	equ	0xFF3
  2423                           intcon	equ	0xFF2
  2424                           postinc0	equ	0xFEE
  2425                           wreg	equ	0xFE8
  2426                           postdec1	equ	0xFE5
  2427                           fsr1l	equ	0xFE1
  2428                           indf2	equ	0xFDF
  2429                           postinc2	equ	0xFDE
  2430                           fsr2h	equ	0xFDA
  2431                           fsr2l	equ	0xFD9
  2432                           status	equ	0xFD8
  2433                           
  2434 ;; *************** function _Interrupt_Init *****************
  2435 ;; Defined at:
  2436 ;;		line 94 in file "Interrupts.c"
  2437 ;; Parameters:    Size  Location     Type
  2438 ;;		None
  2439 ;; Auto vars:     Size  Location     Type
  2440 ;;		None
  2441 ;; Return value:  Size  Location     Type
  2442 ;;                  1    wreg      void 
  2443 ;; Registers used:
  2444 ;;		cstack
  2445 ;; Tracked objects:
  2446 ;;		On entry : 0/0
  2447 ;;		On exit  : 0/0
  2448 ;;		Unchanged: 0/0
  2449 ;; Data sizes:     COMRAM   BANK0   BANK1   BANK2   BANK3   BANK4   BANK5   BANK6   BANK7
  2450 ;;      Params:         0       0       0       0       0       0       0       0       0
  2451 ;;      Locals:         0       0       0       0       0       0       0       0       0
  2452 ;;      Temps:          0       0       0       0       0       0       0       0       0
  2453 ;;      Totals:         0       0       0       0       0       0       0       0       0
  2454 ;;Total ram usage:        0 bytes
  2455 ;; Hardware stack levels used:    1
  2456 ;; Hardware stack levels required when called:    6
  2457 ;; This function calls:
  2458 ;;		_INIT_INTCON
  2459 ;;		_INIT_INTCON2
  2460 ;;		_INIT_INTCON3
  2461 ;;		_INIT_IPR1
  2462 ;;		_INIT_IPR2
  2463 ;;		_INIT_PIE1
  2464 ;;		_INIT_PIE2
  2465 ;;		_INIT_RCON
  2466 ;; This function is called by:
  2467 ;;		_main
  2468 ;; This function uses a non-reentrant model
  2469 ;;
  2470                           
  2471                           	psect	text15
  2472  0010AA                     __ptext15:
  2473                           	opt stack 0
  2474  0010AA                     _Interrupt_Init:
  2475                           	opt stack 24
  2476                           
  2477                           ;Interrupts.c: 95: INIT_RCON();
  2478                           
  2479                           ; BSR set to: 0
  2480                           ;incstack = 0
  2481  0010AA  EC16  F009         	call	_INIT_RCON	;wreg free
  2482                           
  2483                           ;Interrupts.c: 96: INIT_INTCON();
  2484  0010AE  ECD6  F008         	call	_INIT_INTCON	;wreg free
  2485                           
  2486                           ;Interrupts.c: 97: INIT_INTCON2();
  2487  0010B2  ECC9  F008         	call	_INIT_INTCON2	;wreg free
  2488                           
  2489                           ;Interrupts.c: 98: INIT_INTCON3();
  2490  0010B6  ECF1  F008         	call	_INIT_INTCON3	;wreg free
  2491                           
  2492                           ;Interrupts.c: 99: INIT_PIE1();
  2493  0010BA  ECA3  F008         	call	_INIT_PIE1	;wreg free
  2494                           
  2495                           ;Interrupts.c: 100: INIT_PIE2();
  2496  0010BE  ECBB  F008         	call	_INIT_PIE2	;wreg free
  2497                           
  2498                           ;Interrupts.c: 101: INIT_IPR1();
  2499  0010C2  ECAB  F008         	call	_INIT_IPR1	;wreg free
  2500                           
  2501                           ;Interrupts.c: 102: INIT_IPR2();
  2502  0010C6  ECC2  F008         	call	_INIT_IPR2	;wreg free
  2503  0010CA  0012               	return		;funcret
  2504  0010CC                     __end_of_Interrupt_Init:
  2505                           	opt stack 0
  2506                           tblptru	equ	0xFF8
  2507                           tblptrh	equ	0xFF7
  2508                           tblptrl	equ	0xFF6
  2509                           tablat	equ	0xFF5
  2510                           prodh	equ	0xFF4
  2511                           prodl	equ	0xFF3
  2512                           intcon	equ	0xFF2
  2513                           postinc0	equ	0xFEE
  2514                           wreg	equ	0xFE8
  2515                           postdec1	equ	0xFE5
  2516                           fsr1l	equ	0xFE1
  2517                           indf2	equ	0xFDF
  2518                           postinc2	equ	0xFDE
  2519                           fsr2h	equ	0xFDA
  2520                           fsr2l	equ	0xFD9
  2521                           status	equ	0xFD8
  2522                           
  2523 ;; *************** function _INIT_RCON *****************
  2524 ;; Defined at:
  2525 ;;		line 47 in file "Interrupts.c"
  2526 ;; Parameters:    Size  Location     Type
  2527 ;;		None
  2528 ;; Auto vars:     Size  Location     Type
  2529 ;;		None
  2530 ;; Return value:  Size  Location     Type
  2531 ;;                  1    wreg      void 
  2532 ;; Registers used:
  2533 ;;		None
  2534 ;; Tracked objects:
  2535 ;;		On entry : 0/0
  2536 ;;		On exit  : 0/0
  2537 ;;		Unchanged: 0/0
  2538 ;; Data sizes:     COMRAM   BANK0   BANK1   BANK2   BANK3   BANK4   BANK5   BANK6   BANK7
  2539 ;;      Params:         0       0       0       0       0       0       0       0       0
  2540 ;;      Locals:         0       0       0       0       0       0       0       0       0
  2541 ;;      Temps:          0       0       0       0       0       0       0       0       0
  2542 ;;      Totals:         0       0       0       0       0       0       0       0       0
  2543 ;;Total ram usage:        0 bytes
  2544 ;; Hardware stack levels used:    1
  2545 ;; Hardware stack levels required when called:    5
  2546 ;; This function calls:
  2547 ;;		Nothing
  2548 ;; This function is called by:
  2549 ;;		_Interrupt_Init
  2550 ;; This function uses a non-reentrant model
  2551 ;;
  2552                           
  2553                           	psect	text16
  2554  00122C                     __ptext16:
  2555                           	opt stack 0
  2556  00122C                     _INIT_RCON:
  2557                           	opt stack 24
  2558                           
  2559                           ;Interrupts.c: 49: RCONbits.IPEN = 1U;
  2560                           
  2561                           ;incstack = 0
  2562  00122C  8ED0               	bsf	4048,7,c	;volatile
  2563  00122E  0012               	return		;funcret
  2564  001230                     __end_of_INIT_RCON:
  2565                           	opt stack 0
  2566                           tblptru	equ	0xFF8
  2567                           tblptrh	equ	0xFF7
  2568                           tblptrl	equ	0xFF6
  2569                           tablat	equ	0xFF5
  2570                           prodh	equ	0xFF4
  2571                           prodl	equ	0xFF3
  2572                           intcon	equ	0xFF2
  2573                           postinc0	equ	0xFEE
  2574                           wreg	equ	0xFE8
  2575                           postdec1	equ	0xFE5
  2576                           fsr1l	equ	0xFE1
  2577                           indf2	equ	0xFDF
  2578                           postinc2	equ	0xFDE
  2579                           fsr2h	equ	0xFDA
  2580                           fsr2l	equ	0xFD9
  2581                           status	equ	0xFD8
  2582                           
  2583 ;; *************** function _INIT_PIE2 *****************
  2584 ;; Defined at:
  2585 ;;		line 63 in file "Interrupts.c"
  2586 ;; Parameters:    Size  Location     Type
  2587 ;;		None
  2588 ;; Auto vars:     Size  Location     Type
  2589 ;;		None
  2590 ;; Return value:  Size  Location     Type
  2591 ;;                  1    wreg      void 
  2592 ;; Registers used:
  2593 ;;		None
  2594 ;; Tracked objects:
  2595 ;;		On entry : 0/0
  2596 ;;		On exit  : 0/0
  2597 ;;		Unchanged: 0/0
  2598 ;; Data sizes:     COMRAM   BANK0   BANK1   BANK2   BANK3   BANK4   BANK5   BANK6   BANK7
  2599 ;;      Params:         0       0       0       0       0       0       0       0       0
  2600 ;;      Locals:         0       0       0       0       0       0       0       0       0
  2601 ;;      Temps:          0       0       0       0       0       0       0       0       0
  2602 ;;      Totals:         0       0       0       0       0       0       0       0       0
  2603 ;;Total ram usage:        0 bytes
  2604 ;; Hardware stack levels used:    1
  2605 ;; Hardware stack levels required when called:    5
  2606 ;; This function calls:
  2607 ;;		Nothing
  2608 ;; This function is called by:
  2609 ;;		_Interrupt_Init
  2610 ;; This function uses a non-reentrant model
  2611 ;;
  2612                           
  2613                           	psect	text17
  2614  001176                     __ptext17:
  2615                           	opt stack 0
  2616  001176                     _INIT_PIE2:
  2617                           	opt stack 24
  2618                           
  2619                           ;Interrupts.c: 65: PIE2bits.OSCFIE=0U;
  2620                           
  2621                           ;incstack = 0
  2622  001176  9EA0               	bcf	4000,7,c	;volatile
  2623                           
  2624                           ;Interrupts.c: 66: PIE2bits.CMIE=0U;
  2625  001178  9CA0               	bcf	4000,6,c	;volatile
  2626                           
  2627                           ;Interrupts.c: 67: PIE2bits.EEIE=0U;
  2628  00117A  98A0               	bcf	4000,4,c	;volatile
  2629                           
  2630                           ;Interrupts.c: 68: PIE2bits.HLVDIE=0U;
  2631  00117C  94A0               	bcf	4000,2,c	;volatile
  2632                           
  2633                           ;Interrupts.c: 69: PIE2bits.BCLIE=0U;
  2634  00117E  96A0               	bcf	4000,3,c	;volatile
  2635                           
  2636                           ;Interrupts.c: 70: PIE2bits.TMR3IE=0U;
  2637  001180  92A0               	bcf	4000,1,c	;volatile
  2638  001182  0012               	return		;funcret
  2639  001184                     __end_of_INIT_PIE2:
  2640                           	opt stack 0
  2641                           tblptru	equ	0xFF8
  2642                           tblptrh	equ	0xFF7
  2643                           tblptrl	equ	0xFF6
  2644                           tablat	equ	0xFF5
  2645                           prodh	equ	0xFF4
  2646                           prodl	equ	0xFF3
  2647                           intcon	equ	0xFF2
  2648                           postinc0	equ	0xFEE
  2649                           wreg	equ	0xFE8
  2650                           postdec1	equ	0xFE5
  2651                           fsr1l	equ	0xFE1
  2652                           indf2	equ	0xFDF
  2653                           postinc2	equ	0xFDE
  2654                           fsr2h	equ	0xFDA
  2655                           fsr2l	equ	0xFD9
  2656                           status	equ	0xFD8
  2657                           
  2658 ;; *************** function _INIT_PIE1 *****************
  2659 ;; Defined at:
  2660 ;;		line 52 in file "Interrupts.c"
  2661 ;; Parameters:    Size  Location     Type
  2662 ;;		None
  2663 ;; Auto vars:     Size  Location     Type
  2664 ;;		None
  2665 ;; Return value:  Size  Location     Type
  2666 ;;                  1    wreg      void 
  2667 ;; Registers used:
  2668 ;;		None
  2669 ;; Tracked objects:
  2670 ;;		On entry : 0/0
  2671 ;;		On exit  : 0/0
  2672 ;;		Unchanged: 0/0
  2673 ;; Data sizes:     COMRAM   BANK0   BANK1   BANK2   BANK3   BANK4   BANK5   BANK6   BANK7
  2674 ;;      Params:         0       0       0       0       0       0       0       0       0
  2675 ;;      Locals:         0       0       0       0       0       0       0       0       0
  2676 ;;      Temps:          0       0       0       0       0       0       0       0       0
  2677 ;;      Totals:         0       0       0       0       0       0       0       0       0
  2678 ;;Total ram usage:        0 bytes
  2679 ;; Hardware stack levels used:    1
  2680 ;; Hardware stack levels required when called:    5
  2681 ;; This function calls:
  2682 ;;		Nothing
  2683 ;; This function is called by:
  2684 ;;		_Interrupt_Init
  2685 ;; This function uses a non-reentrant model
  2686 ;;
  2687                           
  2688                           	psect	text18
  2689  001146                     __ptext18:
  2690                           	opt stack 0
  2691  001146                     _INIT_PIE1:
  2692                           	opt stack 24
  2693                           
  2694                           ;Interrupts.c: 54: PIE1bits.ADIE = 1U;
  2695                           
  2696                           ;incstack = 0
  2697  001146  8C9D               	bsf	3997,6,c	;volatile
  2698                           
  2699                           ;Interrupts.c: 55: PIE1bits.RCIE = 1U;
  2700  001148  8A9D               	bsf	3997,5,c	;volatile
  2701                           
  2702                           ;Interrupts.c: 56: PIE1bits.TXIE = 0U;
  2703  00114A  989D               	bcf	3997,4,c	;volatile
  2704                           
  2705                           ;Interrupts.c: 57: PIE1bits.SSPIE = 0U;
  2706  00114C  969D               	bcf	3997,3,c	;volatile
  2707                           
  2708                           ;Interrupts.c: 58: PIE1bits.CCP1IE = 0U;
  2709  00114E  949D               	bcf	3997,2,c	;volatile
  2710                           
  2711                           ;Interrupts.c: 59: PIE1bits.TMR2IE = 0U;
  2712  001150  929D               	bcf	3997,1,c	;volatile
  2713                           
  2714                           ;Interrupts.c: 60: PIE1bits.TMR1IE = 0U;
  2715  001152  909D               	bcf	3997,0,c	;volatile
  2716  001154  0012               	return		;funcret
  2717  001156                     __end_of_INIT_PIE1:
  2718                           	opt stack 0
  2719                           tblptru	equ	0xFF8
  2720                           tblptrh	equ	0xFF7
  2721                           tblptrl	equ	0xFF6
  2722                           tablat	equ	0xFF5
  2723                           prodh	equ	0xFF4
  2724                           prodl	equ	0xFF3
  2725                           intcon	equ	0xFF2
  2726                           postinc0	equ	0xFEE
  2727                           wreg	equ	0xFE8
  2728                           postdec1	equ	0xFE5
  2729                           fsr1l	equ	0xFE1
  2730                           indf2	equ	0xFDF
  2731                           postinc2	equ	0xFDE
  2732                           fsr2h	equ	0xFDA
  2733                           fsr2l	equ	0xFD9
  2734                           status	equ	0xFD8
  2735                           
  2736 ;; *************** function _INIT_IPR2 *****************
  2737 ;; Defined at:
  2738 ;;		line 84 in file "Interrupts.c"
  2739 ;; Parameters:    Size  Location     Type
  2740 ;;		None
  2741 ;; Auto vars:     Size  Location     Type
  2742 ;;		None
  2743 ;; Return value:  Size  Location     Type
  2744 ;;                  1    wreg      void 
  2745 ;; Registers used:
  2746 ;;		None
  2747 ;; Tracked objects:
  2748 ;;		On entry : 0/0
  2749 ;;		On exit  : 0/0
  2750 ;;		Unchanged: 0/0
  2751 ;; Data sizes:     COMRAM   BANK0   BANK1   BANK2   BANK3   BANK4   BANK5   BANK6   BANK7
  2752 ;;      Params:         0       0       0       0       0       0       0       0       0
  2753 ;;      Locals:         0       0       0       0       0       0       0       0       0
  2754 ;;      Temps:          0       0       0       0       0       0       0       0       0
  2755 ;;      Totals:         0       0       0       0       0       0       0       0       0
  2756 ;;Total ram usage:        0 bytes
  2757 ;; Hardware stack levels used:    1
  2758 ;; Hardware stack levels required when called:    5
  2759 ;; This function calls:
  2760 ;;		Nothing
  2761 ;; This function is called by:
  2762 ;;		_Interrupt_Init
  2763 ;; This function uses a non-reentrant model
  2764 ;;
  2765                           
  2766                           	psect	text19
  2767  001184                     __ptext19:
  2768                           	opt stack 0
  2769  001184                     _INIT_IPR2:
  2770                           	opt stack 24
  2771                           
  2772                           ;Interrupts.c: 85: IPR2bits.OSCFIP=0U;
  2773                           
  2774                           ;incstack = 0
  2775  001184  9EA2               	bcf	4002,7,c	;volatile
  2776                           
  2777                           ;Interrupts.c: 86: IPR2bits.CMIP=0U;
  2778  001186  9CA2               	bcf	4002,6,c	;volatile
  2779                           
  2780                           ;Interrupts.c: 87: IPR2bits.EEIP=0U;
  2781  001188  98A2               	bcf	4002,4,c	;volatile
  2782                           
  2783                           ;Interrupts.c: 88: IPR2bits.HLVDIP=0U;
  2784  00118A  94A2               	bcf	4002,2,c	;volatile
  2785                           
  2786                           ;Interrupts.c: 89: IPR2bits.BCLIP=0U;
  2787  00118C  96A2               	bcf	4002,3,c	;volatile
  2788                           
  2789                           ;Interrupts.c: 90: IPR2bits.TMR3IP=0U;
  2790  00118E  92A2               	bcf	4002,1,c	;volatile
  2791  001190  0012               	return		;funcret
  2792  001192                     __end_of_INIT_IPR2:
  2793                           	opt stack 0
  2794                           tblptru	equ	0xFF8
  2795                           tblptrh	equ	0xFF7
  2796                           tblptrl	equ	0xFF6
  2797                           tablat	equ	0xFF5
  2798                           prodh	equ	0xFF4
  2799                           prodl	equ	0xFF3
  2800                           intcon	equ	0xFF2
  2801                           postinc0	equ	0xFEE
  2802                           wreg	equ	0xFE8
  2803                           postdec1	equ	0xFE5
  2804                           fsr1l	equ	0xFE1
  2805                           indf2	equ	0xFDF
  2806                           postinc2	equ	0xFDE
  2807                           fsr2h	equ	0xFDA
  2808                           fsr2l	equ	0xFD9
  2809                           status	equ	0xFD8
  2810                           
  2811 ;; *************** function _INIT_IPR1 *****************
  2812 ;; Defined at:
  2813 ;;		line 74 in file "Interrupts.c"
  2814 ;; Parameters:    Size  Location     Type
  2815 ;;		None
  2816 ;; Auto vars:     Size  Location     Type
  2817 ;;		None
  2818 ;; Return value:  Size  Location     Type
  2819 ;;                  1    wreg      void 
  2820 ;; Registers used:
  2821 ;;		None
  2822 ;; Tracked objects:
  2823 ;;		On entry : 0/0
  2824 ;;		On exit  : 0/0
  2825 ;;		Unchanged: 0/0
  2826 ;; Data sizes:     COMRAM   BANK0   BANK1   BANK2   BANK3   BANK4   BANK5   BANK6   BANK7
  2827 ;;      Params:         0       0       0       0       0       0       0       0       0
  2828 ;;      Locals:         0       0       0       0       0       0       0       0       0
  2829 ;;      Temps:          0       0       0       0       0       0       0       0       0
  2830 ;;      Totals:         0       0       0       0       0       0       0       0       0
  2831 ;;Total ram usage:        0 bytes
  2832 ;; Hardware stack levels used:    1
  2833 ;; Hardware stack levels required when called:    5
  2834 ;; This function calls:
  2835 ;;		Nothing
  2836 ;; This function is called by:
  2837 ;;		_Interrupt_Init
  2838 ;; This function uses a non-reentrant model
  2839 ;;
  2840                           
  2841                           	psect	text20
  2842  001156                     __ptext20:
  2843                           	opt stack 0
  2844  001156                     _INIT_IPR1:
  2845                           	opt stack 24
  2846                           
  2847                           ;Interrupts.c: 75: IPR1bits.ADIP=1U;
  2848                           
  2849                           ;incstack = 0
  2850  001156  8C9F               	bsf	3999,6,c	;volatile
  2851                           
  2852                           ;Interrupts.c: 76: IPR1bits.RCIP=1U;
  2853  001158  8A9F               	bsf	3999,5,c	;volatile
  2854                           
  2855                           ;Interrupts.c: 77: IPR1bits.TXIP=0U;
  2856  00115A  989F               	bcf	3999,4,c	;volatile
  2857                           
  2858                           ;Interrupts.c: 78: IPR1bits.SSPIP=0U;
  2859  00115C  969F               	bcf	3999,3,c	;volatile
  2860                           
  2861                           ;Interrupts.c: 79: IPR1bits.CCP1IP=1U;
  2862  00115E  849F               	bsf	3999,2,c	;volatile
  2863                           
  2864                           ;Interrupts.c: 80: IPR1bits.TMR2IP=0U;
  2865  001160  929F               	bcf	3999,1,c	;volatile
  2866                           
  2867                           ;Interrupts.c: 81: IPR1bits.TMR1IP=0U;
  2868  001162  909F               	bcf	3999,0,c	;volatile
  2869  001164  0012               	return		;funcret
  2870  001166                     __end_of_INIT_IPR1:
  2871                           	opt stack 0
  2872                           tblptru	equ	0xFF8
  2873                           tblptrh	equ	0xFF7
  2874                           tblptrl	equ	0xFF6
  2875                           tablat	equ	0xFF5
  2876                           prodh	equ	0xFF4
  2877                           prodl	equ	0xFF3
  2878                           intcon	equ	0xFF2
  2879                           postinc0	equ	0xFEE
  2880                           wreg	equ	0xFE8
  2881                           postdec1	equ	0xFE5
  2882                           fsr1l	equ	0xFE1
  2883                           indf2	equ	0xFDF
  2884                           postinc2	equ	0xFDE
  2885                           fsr2h	equ	0xFDA
  2886                           fsr2l	equ	0xFD9
  2887                           status	equ	0xFD8
  2888                           
  2889 ;; *************** function _INIT_INTCON3 *****************
  2890 ;; Defined at:
  2891 ;;		line 39 in file "Interrupts.c"
  2892 ;; Parameters:    Size  Location     Type
  2893 ;;		None
  2894 ;; Auto vars:     Size  Location     Type
  2895 ;;		None
  2896 ;; Return value:  Size  Location     Type
  2897 ;;                  1    wreg      void 
  2898 ;; Registers used:
  2899 ;;		None
  2900 ;; Tracked objects:
  2901 ;;		On entry : 0/0
  2902 ;;		On exit  : 0/0
  2903 ;;		Unchanged: 0/0
  2904 ;; Data sizes:     COMRAM   BANK0   BANK1   BANK2   BANK3   BANK4   BANK5   BANK6   BANK7
  2905 ;;      Params:         0       0       0       0       0       0       0       0       0
  2906 ;;      Locals:         0       0       0       0       0       0       0       0       0
  2907 ;;      Temps:          0       0       0       0       0       0       0       0       0
  2908 ;;      Totals:         0       0       0       0       0       0       0       0       0
  2909 ;;Total ram usage:        0 bytes
  2910 ;; Hardware stack levels used:    1
  2911 ;; Hardware stack levels required when called:    5
  2912 ;; This function calls:
  2913 ;;		Nothing
  2914 ;; This function is called by:
  2915 ;;		_Interrupt_Init
  2916 ;; This function uses a non-reentrant model
  2917 ;;
  2918                           
  2919                           	psect	text21
  2920  0011E2                     __ptext21:
  2921                           	opt stack 0
  2922  0011E2                     _INIT_INTCON3:
  2923                           	opt stack 24
  2924                           
  2925                           ;Interrupts.c: 40: INTCON3bits.INT2IP=1U;
  2926                           
  2927                           ;incstack = 0
  2928  0011E2  8EF0               	bsf	intcon3,7,c	;volatile
  2929                           
  2930                           ;Interrupts.c: 41: INTCON3bits.INT1IP=0U;
  2931  0011E4  9CF0               	bcf	intcon3,6,c	;volatile
  2932                           
  2933                           ;Interrupts.c: 43: INTCON3bits.INT2IE=1U;
  2934  0011E6  88F0               	bsf	intcon3,4,c	;volatile
  2935                           
  2936                           ;Interrupts.c: 44: INTCON3bits.INT1IE=0U;
  2937  0011E8  96F0               	bcf	intcon3,3,c	;volatile
  2938  0011EA  0012               	return		;funcret
  2939  0011EC                     __end_of_INIT_INTCON3:
  2940                           	opt stack 0
  2941                           tblptru	equ	0xFF8
  2942                           tblptrh	equ	0xFF7
  2943                           tblptrl	equ	0xFF6
  2944                           tablat	equ	0xFF5
  2945                           prodh	equ	0xFF4
  2946                           prodl	equ	0xFF3
  2947                           intcon	equ	0xFF2
  2948                           intcon3	equ	0xFF0
  2949                           postinc0	equ	0xFEE
  2950                           wreg	equ	0xFE8
  2951                           postdec1	equ	0xFE5
  2952                           fsr1l	equ	0xFE1
  2953                           indf2	equ	0xFDF
  2954                           postinc2	equ	0xFDE
  2955                           fsr2h	equ	0xFDA
  2956                           fsr2l	equ	0xFD9
  2957                           status	equ	0xFD8
  2958                           
  2959 ;; *************** function _INIT_INTCON2 *****************
  2960 ;; Defined at:
  2961 ;;		line 28 in file "Interrupts.c"
  2962 ;; Parameters:    Size  Location     Type
  2963 ;;		None
  2964 ;; Auto vars:     Size  Location     Type
  2965 ;;		None
  2966 ;; Return value:  Size  Location     Type
  2967 ;;                  1    wreg      void 
  2968 ;; Registers used:
  2969 ;;		None
  2970 ;; Tracked objects:
  2971 ;;		On entry : 0/0
  2972 ;;		On exit  : 0/0
  2973 ;;		Unchanged: 0/0
  2974 ;; Data sizes:     COMRAM   BANK0   BANK1   BANK2   BANK3   BANK4   BANK5   BANK6   BANK7
  2975 ;;      Params:         0       0       0       0       0       0       0       0       0
  2976 ;;      Locals:         0       0       0       0       0       0       0       0       0
  2977 ;;      Temps:          0       0       0       0       0       0       0       0       0
  2978 ;;      Totals:         0       0       0       0       0       0       0       0       0
  2979 ;;Total ram usage:        0 bytes
  2980 ;; Hardware stack levels used:    1
  2981 ;; Hardware stack levels required when called:    5
  2982 ;; This function calls:
  2983 ;;		Nothing
  2984 ;; This function is called by:
  2985 ;;		_Interrupt_Init
  2986 ;; This function uses a non-reentrant model
  2987 ;;
  2988                           
  2989                           	psect	text22
  2990  001192                     __ptext22:
  2991                           	opt stack 0
  2992  001192                     _INIT_INTCON2:
  2993                           	opt stack 24
  2994                           
  2995                           ;Interrupts.c: 29: INTCON2bits.nRBPU=1U;
  2996                           
  2997                           ;incstack = 0
  2998  001192  8EF1               	bsf	intcon2,7,c	;volatile
  2999                           
  3000                           ;Interrupts.c: 30: INTCON2bits.INTEDG0=0U;
  3001  001194  9CF1               	bcf	intcon2,6,c	;volatile
  3002                           
  3003                           ;Interrupts.c: 31: INTCON2bits.INTEDG1=0U;
  3004  001196  9AF1               	bcf	intcon2,5,c	;volatile
  3005                           
  3006                           ;Interrupts.c: 32: INTCON2bits.INTEDG2=1U;
  3007  001198  88F1               	bsf	intcon2,4,c	;volatile
  3008                           
  3009                           ;Interrupts.c: 34: INTCON2bits.T0IP=1U;
  3010  00119A  84F1               	bsf	intcon2,2,c	;volatile
  3011                           
  3012                           ;Interrupts.c: 36: INTCON2bits.RBIP=0U;
  3013  00119C  90F1               	bcf	intcon2,0,c	;volatile
  3014  00119E  0012               	return		;funcret
  3015  0011A0                     __end_of_INIT_INTCON2:
  3016                           	opt stack 0
  3017                           tblptru	equ	0xFF8
  3018                           tblptrh	equ	0xFF7
  3019                           tblptrl	equ	0xFF6
  3020                           tablat	equ	0xFF5
  3021                           prodh	equ	0xFF4
  3022                           prodl	equ	0xFF3
  3023                           intcon	equ	0xFF2
  3024                           intcon2	equ	0xFF1
  3025                           intcon3	equ	0xFF0
  3026                           postinc0	equ	0xFEE
  3027                           wreg	equ	0xFE8
  3028                           postdec1	equ	0xFE5
  3029                           fsr1l	equ	0xFE1
  3030                           indf2	equ	0xFDF
  3031                           postinc2	equ	0xFDE
  3032                           fsr2h	equ	0xFDA
  3033                           fsr2l	equ	0xFD9
  3034                           status	equ	0xFD8
  3035                           
  3036 ;; *************** function _INIT_INTCON *****************
  3037 ;; Defined at:
  3038 ;;		line 11 in file "Interrupts.c"
  3039 ;; Parameters:    Size  Location     Type
  3040 ;;		None
  3041 ;; Auto vars:     Size  Location     Type
  3042 ;;		None
  3043 ;; Return value:  Size  Location     Type
  3044 ;;                  1    wreg      void 
  3045 ;; Registers used:
  3046 ;;		None
  3047 ;; Tracked objects:
  3048 ;;		On entry : 0/0
  3049 ;;		On exit  : 0/0
  3050 ;;		Unchanged: 0/0
  3051 ;; Data sizes:     COMRAM   BANK0   BANK1   BANK2   BANK3   BANK4   BANK5   BANK6   BANK7
  3052 ;;      Params:         0       0       0       0       0       0       0       0       0
  3053 ;;      Locals:         0       0       0       0       0       0       0       0       0
  3054 ;;      Temps:          0       0       0       0       0       0       0       0       0
  3055 ;;      Totals:         0       0       0       0       0       0       0       0       0
  3056 ;;Total ram usage:        0 bytes
  3057 ;; Hardware stack levels used:    1
  3058 ;; Hardware stack levels required when called:    5
  3059 ;; This function calls:
  3060 ;;		Nothing
  3061 ;; This function is called by:
  3062 ;;		_Interrupt_Init
  3063 ;; This function uses a non-reentrant model
  3064 ;;
  3065                           
  3066                           	psect	text23
  3067  0011AC                     __ptext23:
  3068                           	opt stack 0
  3069  0011AC                     _INIT_INTCON:
  3070                           	opt stack 24
  3071                           
  3072                           ;Interrupts.c: 13: INTCONbits.GIE = 1U;
  3073                           
  3074                           ;incstack = 0
  3075  0011AC  8EF2               	bsf	intcon,7,c	;volatile
  3076                           
  3077                           ;Interrupts.c: 14: INTCONbits.PEIE = 0U;
  3078  0011AE  9CF2               	bcf	intcon,6,c	;volatile
  3079                           
  3080                           ;Interrupts.c: 15: INTCONbits.TMR0IE = 1U;
  3081  0011B0  8AF2               	bsf	intcon,5,c	;volatile
  3082                           
  3083                           ;Interrupts.c: 16: INTCONbits.INT0E=0U;
  3084  0011B2  98F2               	bcf	intcon,4,c	;volatile
  3085                           
  3086                           ;Interrupts.c: 17: INTCONbits.RBIE=0U;
  3087  0011B4  96F2               	bcf	intcon,3,c	;volatile
  3088  0011B6  0012               	return		;funcret
  3089  0011B8                     __end_of_INIT_INTCON:
  3090                           	opt stack 0
  3091                           tblptru	equ	0xFF8
  3092                           tblptrh	equ	0xFF7
  3093                           tblptrl	equ	0xFF6
  3094                           tablat	equ	0xFF5
  3095                           prodh	equ	0xFF4
  3096                           prodl	equ	0xFF3
  3097                           intcon	equ	0xFF2
  3098                           intcon2	equ	0xFF1
  3099                           intcon3	equ	0xFF0
  3100                           postinc0	equ	0xFEE
  3101                           wreg	equ	0xFE8
  3102                           postdec1	equ	0xFE5
  3103                           fsr1l	equ	0xFE1
  3104                           indf2	equ	0xFDF
  3105                           postinc2	equ	0xFDE
  3106                           fsr2h	equ	0xFDA
  3107                           fsr2l	equ	0xFD9
  3108                           status	equ	0xFD8
  3109                           
  3110 ;; *************** function _InitDHT11Driver *****************
  3111 ;; Defined at:
  3112 ;;		line 106 in file "DHT11Driver.c"
  3113 ;; Parameters:    Size  Location     Type
  3114 ;;		None
  3115 ;; Auto vars:     Size  Location     Type
  3116 ;;		None
  3117 ;; Return value:  Size  Location     Type
  3118 ;;                  1    wreg      void 
  3119 ;; Registers used:
  3120 ;;		wreg, status,2, status,0, cstack
  3121 ;; Tracked objects:
  3122 ;;		On entry : 0/0
  3123 ;;		On exit  : 0/0
  3124 ;;		Unchanged: 0/0
  3125 ;; Data sizes:     COMRAM   BANK0   BANK1   BANK2   BANK3   BANK4   BANK5   BANK6   BANK7
  3126 ;;      Params:         0       0       0       0       0       0       0       0       0
  3127 ;;      Locals:         0       0       0       0       0       0       0       0       0
  3128 ;;      Temps:          0       0       0       0       0       0       0       0       0
  3129 ;;      Totals:         0       0       0       0       0       0       0       0       0
  3130 ;;Total ram usage:        0 bytes
  3131 ;; Hardware stack levels used:    1
  3132 ;; Hardware stack levels required when called:    6
  3133 ;; This function calls:
  3134 ;;		_ConfigureTimer1
  3135 ;; This function is called by:
  3136 ;;		_main
  3137 ;; This function uses a non-reentrant model
  3138 ;;
  3139                           
  3140                           	psect	text24
  3141  0011EC                     __ptext24:
  3142                           	opt stack 0
  3143  0011EC                     _InitDHT11Driver:
  3144                           	opt stack 24
  3145                           
  3146                           ;DHT11Driver.c: 107: (TRISCbits.TRISC2 = 0);
  3147                           
  3148                           ;incstack = 0
  3149  0011EC  9494               	bcf	3988,2,c	;volatile
  3150                           
  3151                           ;DHT11Driver.c: 108: (LATC2=1U);
  3152  0011EE  848B               	bsf	3979,2,c	;volatile
  3153                           
  3154                           ;DHT11Driver.c: 109: ConfigureTimer1();
  3155  0011F0  ECBF  F007         	call	_ConfigureTimer1	;wreg free
  3156  0011F4  0012               	return		;funcret
  3157  0011F6                     __end_of_InitDHT11Driver:
  3158                           	opt stack 0
  3159                           tblptru	equ	0xFF8
  3160                           tblptrh	equ	0xFF7
  3161                           tblptrl	equ	0xFF6
  3162                           tablat	equ	0xFF5
  3163                           prodh	equ	0xFF4
  3164                           prodl	equ	0xFF3
  3165                           intcon	equ	0xFF2
  3166                           intcon2	equ	0xFF1
  3167                           intcon3	equ	0xFF0
  3168                           postinc0	equ	0xFEE
  3169                           wreg	equ	0xFE8
  3170                           postdec1	equ	0xFE5
  3171                           fsr1l	equ	0xFE1
  3172                           indf2	equ	0xFDF
  3173                           postinc2	equ	0xFDE
  3174                           fsr2h	equ	0xFDA
  3175                           fsr2l	equ	0xFD9
  3176                           status	equ	0xFD8
  3177                           
  3178 ;; *************** function _ConfigureTimer1 *****************
  3179 ;; Defined at:
  3180 ;;		line 6 in file "CCP1.c"
  3181 ;; Parameters:    Size  Location     Type
  3182 ;;		None
  3183 ;; Auto vars:     Size  Location     Type
  3184 ;;		None
  3185 ;; Return value:  Size  Location     Type
  3186 ;;                  2  313[None  ] int 
  3187 ;; Registers used:
  3188 ;;		wreg, status,2, status,0
  3189 ;; Tracked objects:
  3190 ;;		On entry : 0/0
  3191 ;;		On exit  : 0/0
  3192 ;;		Unchanged: 0/0
  3193 ;; Data sizes:     COMRAM   BANK0   BANK1   BANK2   BANK3   BANK4   BANK5   BANK6   BANK7
  3194 ;;      Params:         0       0       0       0       0       0       0       0       0
  3195 ;;      Locals:         0       0       0       0       0       0       0       0       0
  3196 ;;      Temps:          0       0       0       0       0       0       0       0       0
  3197 ;;      Totals:         0       0       0       0       0       0       0       0       0
  3198 ;;Total ram usage:        0 bytes
  3199 ;; Hardware stack levels used:    1
  3200 ;; Hardware stack levels required when called:    5
  3201 ;; This function calls:
  3202 ;;		Nothing
  3203 ;; This function is called by:
  3204 ;;		_InitDHT11Driver
  3205 ;; This function uses a non-reentrant model
  3206 ;;
  3207                           
  3208                           	psect	text25
  3209  000F7E                     __ptext25:
  3210                           	opt stack 0
  3211  000F7E                     _ConfigureTimer1:
  3212                           	opt stack 24
  3213                           
  3214                           ;CCP1.c: 7: T1CONbits.RD16=1;
  3215                           
  3216                           ;incstack = 0
  3217  000F7E  8ECD               	bsf	4045,7,c	;volatile
  3218                           
  3219                           ;CCP1.c: 8: T1RUN=1U;
  3220  000F80  8CCD               	bsf	4045,6,c	;volatile
  3221                           
  3222                           ;CCP1.c: 9: T1OSCEN=1U;
  3223  000F82  86CD               	bsf	4045,3,c	;volatile
  3224                           
  3225                           ;CCP1.c: 10: TMR1CS=0U;
  3226  000F84  92CD               	bcf	4045,1,c	;volatile
  3227                           
  3228                           ;CCP1.c: 11: TMR1ON=0U;
  3229  000F86  90CD               	bcf	4045,0,c	;volatile
  3230                           
  3231                           ;CCP1.c: 13: mask = T1CON & 0xCF;
  3232  000F88  50CD               	movf	4045,w,c	;volatile
  3233  000F8A  0BCF               	andlw	207
  3234  000F8C  6E34               	movwf	_mask,c
  3235                           
  3236                           ;CCP1.c: 14: if (prescaler == 8) T1CON = mask | 0x30;
  3237  000F8E  0E08               	movlw	8
  3238  000F90  1844               	xorwf	_prescaler,w,c
  3239  000F92  A4D8               	btfss	status,2,c
  3240  000F94  D004               	goto	l2269
  3241  000F96  5034               	movf	_mask,w,c
  3242  000F98  0930               	iorlw	48
  3243  000F9A  6ECD               	movwf	4045,c	;volatile
  3244  000F9C  0012               	return	
  3245  000F9E                     l2269:
  3246                           
  3247                           ;CCP1.c: 15: else if (prescaler == 4) T1CON = mask | 0x20;
  3248  000F9E  0E04               	movlw	4
  3249  000FA0  1844               	xorwf	_prescaler,w,c
  3250  000FA2  A4D8               	btfss	status,2,c
  3251  000FA4  D004               	goto	l2273
  3252  000FA6  5034               	movf	_mask,w,c
  3253  000FA8  0920               	iorlw	32
  3254  000FAA  6ECD               	movwf	4045,c	;volatile
  3255  000FAC  0012               	return	
  3256  000FAE                     l2273:
  3257                           
  3258                           ;CCP1.c: 16: else if (prescaler == 2) T1CON = mask | 0x10;
  3259  000FAE  0E02               	movlw	2
  3260  000FB0  1844               	xorwf	_prescaler,w,c
  3261  000FB2  A4D8               	btfss	status,2,c
  3262  000FB4  D004               	goto	l393
  3263  000FB6  5034               	movf	_mask,w,c
  3264  000FB8  0910               	iorlw	16
  3265  000FBA  6ECD               	movwf	4045,c	;volatile
  3266  000FBC  0012               	return	
  3267  000FBE                     l393:
  3268                           
  3269                           ;CCP1.c: 17: else T1CON = mask;
  3270  000FBE  C034  FFCD         	movff	_mask,4045	;volatile
  3271  000FC2  0012               	return	
  3272  000FC4                     __end_of_ConfigureTimer1:
  3273                           	opt stack 0
  3274                           tblptru	equ	0xFF8
  3275                           tblptrh	equ	0xFF7
  3276                           tblptrl	equ	0xFF6
  3277                           tablat	equ	0xFF5
  3278                           prodh	equ	0xFF4
  3279                           prodl	equ	0xFF3
  3280                           intcon	equ	0xFF2
  3281                           intcon2	equ	0xFF1
  3282                           intcon3	equ	0xFF0
  3283                           postinc0	equ	0xFEE
  3284                           wreg	equ	0xFE8
  3285                           postdec1	equ	0xFE5
  3286                           fsr1l	equ	0xFE1
  3287                           indf2	equ	0xFDF
  3288                           postinc2	equ	0xFDE
  3289                           fsr2h	equ	0xFDA
  3290                           fsr2l	equ	0xFD9
  3291                           status	equ	0xFD8
  3292                           
  3293 ;; *************** function _HighISR *****************
  3294 ;; Defined at:
  3295 ;;		line 69 in file "Main.c"
  3296 ;; Parameters:    Size  Location     Type
  3297 ;;		None
  3298 ;; Auto vars:     Size  Location     Type
  3299 ;;		None
  3300 ;; Return value:  Size  Location     Type
  3301 ;;                  1    wreg      void 
  3302 ;; Registers used:
  3303 ;;		wreg, fsr2l, fsr2h, status,2, status,0, pclat, tosl, prodl, prodh, cstack
  3304 ;; Tracked objects:
  3305 ;;		On entry : 0/0
  3306 ;;		On exit  : 0/0
  3307 ;;		Unchanged: 0/0
  3308 ;; Data sizes:     COMRAM   BANK0   BANK1   BANK2   BANK3   BANK4   BANK5   BANK6   BANK7
  3309 ;;      Params:         0       0       0       0       0       0       0       0       0
  3310 ;;      Locals:         0       0       0       0       0       0       0       0       0
  3311 ;;      Temps:         16       0       0       0       0       0       0       0       0
  3312 ;;      Totals:        16       0       0       0       0       0       0       0       0
  3313 ;;Total ram usage:       16 bytes
  3314 ;; Hardware stack levels used:    1
  3315 ;; Hardware stack levels required when called:    4
  3316 ;; This function calls:
  3317 ;;		_DHTSignalResponse
  3318 ;;		_FirstStateRequest
  3319 ;;		_Idle
  3320 ;;		_RecievingData
  3321 ;;		_SecondStateRequest
  3322 ;;		i2_TMR0_WRITE_HIGH
  3323 ;;		i2_TMR0_WRITE_LOW
  3324 ;;		i2_TurnOnLights
  3325 ;; This function is called by:
  3326 ;;		Interrupt level 2
  3327 ;; This function uses a non-reentrant model
  3328 ;;
  3329                           
  3330                           	psect	intcode
  3331  000008                     __pintcode:
  3332                           	opt stack 0
  3333  000008                     _HighISR:
  3334                           	opt stack 21
  3335                           
  3336                           ;incstack = 0
  3337  000008  8245               	bsf	btemp,1,c	;set compiler interrupt flag (level 2)
  3338  00000A  CFFA F015          	movff	pclath,??_HighISR+2
  3339  00000E  CFFB F016          	movff	pclatu,??_HighISR+3
  3340  000012  ED22  F005         	call	int_func,f	;refresh shadow registers
  3341                           pclatu	equ	0xFFB
  3342                           pclath	equ	0xFFA
  3343                           tblptru	equ	0xFF8
  3344                           tblptrh	equ	0xFF7
  3345                           tblptrl	equ	0xFF6
  3346                           tablat	equ	0xFF5
  3347                           prodh	equ	0xFF4
  3348                           prodl	equ	0xFF3
  3349                           intcon	equ	0xFF2
  3350                           intcon2	equ	0xFF1
  3351                           intcon3	equ	0xFF0
  3352                           postinc0	equ	0xFEE
  3353                           wreg	equ	0xFE8
  3354                           postdec1	equ	0xFE5
  3355                           fsr1l	equ	0xFE1
  3356                           indf2	equ	0xFDF
  3357                           postinc2	equ	0xFDE
  3358                           fsr2h	equ	0xFDA
  3359                           fsr2l	equ	0xFD9
  3360                           status	equ	0xFD8
  3361                           
  3362                           	psect	intcode_body
  3363  000A44                     __pintcode_body:
  3364                           	opt stack 21
  3365  000A44                     int_func:
  3366                           	opt stack 21
  3367  000A44  0006               	pop		; remove dummy address from shadow register refresh
  3368  000A46  CFE9 F017          	movff	fsr0l,??_HighISR+4
  3369  000A4A  CFEA F018          	movff	fsr0h,??_HighISR+5
  3370  000A4E  CFE1 F019          	movff	fsr1l,??_HighISR+6
  3371  000A52  CFE2 F01A          	movff	fsr1h,??_HighISR+7
  3372  000A56  CFD9 F01B          	movff	fsr2l,??_HighISR+8
  3373  000A5A  CFDA F01C          	movff	fsr2h,??_HighISR+9
  3374  000A5E  CFF3 F01D          	movff	prodl,??_HighISR+10
  3375  000A62  CFF4 F01E          	movff	prodh,??_HighISR+11
  3376  000A66  CFF6 F01F          	movff	tblptrl,??_HighISR+12
  3377  000A6A  CFF7 F020          	movff	tblptrh,??_HighISR+13
  3378  000A6E  CFF8 F021          	movff	tblptru,??_HighISR+14
  3379  000A72  CFF5 F022          	movff	tablat,??_HighISR+15
  3380                           
  3381                           ;Main.c: 72: if(INT2IF){
  3382  000A76  A2F0               	btfss	intcon3,1,c	;volatile
  3383  000A78  D00B               	goto	i2l2035
  3384                           
  3385                           ;Main.c: 73: INT2IF=0;
  3386  000A7A  92F0               	bcf	intcon3,1,c	;volatile
  3387                           
  3388                           ;Main.c: 74: if(Door_f){
  3389  000A7C  A03A               	btfss	_Door_f/(0+8),_Door_f& (0+7),c
  3390  000A7E  D003               	goto	i2l2027
  3391                           
  3392                           ;Main.c: 75: INTEDG2=1U;
  3393  000A80  88F1               	bsf	intcon2,4,c	;volatile
  3394                           
  3395                           ;Main.c: 76: Door_f=0;
  3396  000A82  903A               	bcf	_Door_f/(0+8),_Door_f& (0+7),c
  3397                           
  3398                           ;Main.c: 77: }
  3399  000A84  D005               	goto	i2l2035
  3400  000A86                     i2l2027:
  3401                           
  3402                           ;Main.c: 78: else{
  3403                           ;Main.c: 79: TurnOnLights();
  3404  000A86  EC9A  F008         	call	i2_TurnOnLights	;wreg free
  3405                           
  3406                           ;Main.c: 80: lightstate=1;
  3407  000A8A  8E3A               	bsf	_lightstate/(0+8),_lightstate& (0+7),c
  3408                           
  3409                           ;Main.c: 81: INTEDG2=0U;
  3410  000A8C  98F1               	bcf	intcon2,4,c	;volatile
  3411                           
  3412                           ;Main.c: 82: Door_f=1;
  3413  000A8E  803A               	bsf	_Door_f/(0+8),_Door_f& (0+7),c
  3414  000A90                     i2l2035:
  3415                           
  3416                           ;Main.c: 83: }
  3417                           ;Main.c: 84: }
  3418                           ;Main.c: 87: if((RCIF && RCIE))
  3419  000A90  BA9E               	btfsc	3998,5,c	;volatile
  3420  000A92  AA9D               	btfss	3997,5,c	;volatile
  3421  000A94  D01C               	goto	i2l2053
  3422                           
  3423                           ;Main.c: 88: {
  3424                           ;Main.c: 89: RCIF=0;
  3425  000A96  9A9E               	bcf	3998,5,c	;volatile
  3426                           
  3427                           ;Main.c: 90: if(RCREG!='\n' && RCREG!=0xea)
  3428  000A98  0E0A               	movlw	10
  3429  000A9A  18AE               	xorwf	4014,w,c	;volatile
  3430  000A9C  B4D8               	btfsc	status,2,c
  3431  000A9E  D00F               	goto	i2l2049
  3432  000AA0  0EEA               	movlw	234
  3433  000AA2  18AE               	xorwf	4014,w,c	;volatile
  3434  000AA4  B4D8               	btfsc	status,2,c
  3435  000AA6  D00B               	goto	i2l2049
  3436                           
  3437                           ;Main.c: 91: {
  3438                           ;Main.c: 92: RecievedData[serialcount]=RCREG;
  3439  000AA8  5037               	movf	_serialcount,w,c
  3440  000AAA  0D01               	mullw	1
  3441  000AAC  0EBE               	movlw	low _RecievedData
  3442  000AAE  24F3               	addwf	prodl,w,c
  3443  000AB0  6ED9               	movwf	fsr2l,c
  3444  000AB2  0E00               	movlw	high _RecievedData
  3445  000AB4  20F4               	addwfc	prodh,w,c
  3446  000AB6  6EDA               	movwf	fsr2h,c
  3447  000AB8  CFAE FFDF          	movff	4014,indf2	;volatile
  3448                           
  3449                           ;Main.c: 93: serialcount++;
  3450  000ABC  2A37               	incf	_serialcount,f,c
  3451  000ABE                     i2l2049:
  3452                           
  3453                           ;Main.c: 94: }
  3454                           ;Main.c: 95: if(RCREG=='E')
  3455  000ABE  0E45               	movlw	69
  3456  000AC0  18AE               	xorwf	4014,w,c	;volatile
  3457  000AC2  A4D8               	btfss	status,2,c
  3458  000AC4  D004               	goto	i2l2053
  3459                           
  3460                           ;Main.c: 96: {
  3461                           ;Main.c: 97: serialcount=0;
  3462  000AC6  0E00               	movlw	0
  3463  000AC8  6E37               	movwf	_serialcount,c
  3464                           
  3465                           ;Main.c: 98: f_frameready=1;
  3466  000ACA  0E01               	movlw	1
  3467  000ACC  6E32               	movwf	_f_frameready,c
  3468  000ACE                     i2l2053:
  3469                           
  3470                           ;Main.c: 99: }
  3471                           ;Main.c: 100: }
  3472                           ;Main.c: 103: if(ADIF){
  3473  000ACE  AC9E               	btfss	3998,6,c	;volatile
  3474  000AD0  D02D               	goto	i2l135
  3475                           
  3476                           ;Main.c: 104: ADIF=0;
  3477  000AD2  9C9E               	bcf	3998,6,c	;volatile
  3478                           
  3479                           ;Main.c: 105: if(ADRES<=MinLightValue){
  3480  000AD4  5040               	movf	_MinLightValue,w,c
  3481  000AD6  6E13               	movwf	??_HighISR& (0+255),c
  3482  000AD8  6A14               	clrf	(??_HighISR+1)& (0+255),c
  3483  000ADA  50C3               	movf	4035,w,c	;volatile
  3484  000ADC  5C13               	subwf	??_HighISR,w,c
  3485  000ADE  50C4               	movf	4036,w,c	;volatile
  3486  000AE0  5814               	subwfb	??_HighISR+1,w,c
  3487  000AE2  A0D8               	btfss	status,0,c
  3488  000AE4  D004               	goto	i2l2063
  3489                           
  3490                           ;Main.c: 106: lightcounter++;
  3491  000AE6  0100               	movlb	0	; () banked
  3492  000AE8  4BBA               	infsnz	_lightcounter& (0+255),f,b
  3493  000AEA  2BBB               	incf	(_lightcounter+1)& (0+255),f,b
  3494                           
  3495                           ; BSR set to: 0
  3496                           ;Main.c: 107: Light_f=0;
  3497  000AEC  923A               	bcf	_Light_f/(0+8),_Light_f& (0+7),c
  3498  000AEE                     i2l2063:
  3499                           
  3500                           ;Main.c: 108: }
  3501                           ;Main.c: 109: if(ADRES>MinLightValue ){
  3502  000AEE  5040               	movf	_MinLightValue,w,c
  3503  000AF0  6E13               	movwf	??_HighISR& (0+255),c
  3504  000AF2  6A14               	clrf	(??_HighISR+1)& (0+255),c
  3505  000AF4  50C3               	movf	4035,w,c	;volatile
  3506  000AF6  5C13               	subwf	??_HighISR,w,c
  3507  000AF8  50C4               	movf	4036,w,c	;volatile
  3508  000AFA  5814               	subwfb	??_HighISR+1,w,c
  3509  000AFC  B0D8               	btfsc	status,0,c
  3510  000AFE  D016               	goto	i2l135
  3511                           
  3512                           ;Main.c: 110: if(lightcounter<=lightperday && actualtime>timetostartlight ){
  3513  000B00  0100               	movlb	0	; () banked
  3514  000B02  51BA               	movf	_lightcounter& (0+255),w,b
  3515  000B04  5C3C               	subwf	_lightperday,w,c
  3516  000B06  0100               	movlb	0	; () banked
  3517  000B08  51BB               	movf	(_lightcounter+1)& (0+255),w,b
  3518  000B0A  583D               	subwfb	_lightperday+1,w,c
  3519  000B0C  A0D8               	btfss	status,0,c
  3520  000B0E  D00D               	goto	i2l138
  3521                           
  3522                           ; BSR set to: 0
  3523  000B10  5025               	movf	_actualtime,w,c
  3524  000B12  0100               	movlb	0	; () banked
  3525  000B14  5DBC               	subwf	_timetostartlight& (0+255),w,b
  3526  000B16  5026               	movf	_actualtime+1,w,c
  3527  000B18  0100               	movlb	0	; () banked
  3528  000B1A  59BD               	subwfb	(_timetostartlight+1)& (0+255),w,b
  3529  000B1C  B0D8               	btfsc	status,0,c
  3530  000B1E  D005               	goto	i2l138
  3531                           
  3532                           ; BSR set to: 0
  3533                           ;Main.c: 111: Light_f=1;
  3534  000B20  823A               	bsf	_Light_f/(0+8),_Light_f& (0+7),c
  3535                           
  3536                           ; BSR set to: 0
  3537                           ;Main.c: 112: lightcounter++;
  3538  000B22  0100               	movlb	0	; () banked
  3539  000B24  4BBA               	infsnz	_lightcounter& (0+255),f,b
  3540  000B26  2BBB               	incf	(_lightcounter+1)& (0+255),f,b
  3541                           
  3542                           ;Main.c: 113: }
  3543  000B28  D001               	goto	i2l135
  3544  000B2A                     i2l138:
  3545                           
  3546                           ; BSR set to: 0
  3547                           ;Main.c: 114: else{
  3548                           ;Main.c: 115: Light_f=0;
  3549  000B2A  923A               	bcf	_Light_f/(0+8),_Light_f& (0+7),c
  3550  000B2C                     i2l135:
  3551                           
  3552                           ;Main.c: 116: }
  3553                           ;Main.c: 117: }
  3554                           ;Main.c: 119: }
  3555                           ;Main.c: 121: if(TMR0IF){
  3556  000B2C  A4F2               	btfss	intcon,2,c	;volatile
  3557  000B2E  D036               	goto	i2l2103
  3558                           
  3559                           ;Main.c: 123: TMR0IF=0;
  3560  000B30  94F2               	bcf	intcon,2,c	;volatile
  3561                           
  3562                           ;Main.c: 124: TimerCounter++;
  3563  000B32  2A2B               	incf	_TimerCounter,f,c
  3564                           
  3565                           ;Main.c: 133: if (TimerUser!=0)TimerUser--;
  3566  000B34  502C               	movf	_TimerUser,w,c
  3567  000B36  A4D8               	btfss	status,2,c
  3568  000B38  062C               	decf	_TimerUser,f,c
  3569                           
  3570                           ;Main.c: 134: if (TimerCounter==3){
  3571  000B3A  0E03               	movlw	3
  3572  000B3C  182B               	xorwf	_TimerCounter,w,c
  3573  000B3E  A4D8               	btfss	status,2,c
  3574  000B40  D025               	goto	i2l2095
  3575                           
  3576                           ;Main.c: 135: TimerCounter=0;
  3577  000B42  0E00               	movlw	0
  3578  000B44  6E2B               	movwf	_TimerCounter,c
  3579                           
  3580                           ;Main.c: 136: actualtime++;
  3581  000B46  4A25               	infsnz	_actualtime,f,c
  3582  000B48  2A26               	incf	_actualtime+1,f,c
  3583                           
  3584                           ;Main.c: 138: ADCON0bits.GO=1;
  3585  000B4A  82C2               	bsf	4034,1,c	;volatile
  3586                           
  3587                           ;Main.c: 141: if (actualtime==totaldaytime) {
  3588  000B4C  503E               	movf	_totaldaytime,w,c
  3589  000B4E  1825               	xorwf	_actualtime,w,c
  3590  000B50  E11D               	bnz	i2l2095
  3591  000B52  503F               	movf	_totaldaytime+1,w,c
  3592  000B54  1826               	xorwf	_actualtime+1,w,c
  3593  000B56  A4D8               	btfss	status,2,c
  3594  000B58  D019               	goto	i2l2095
  3595                           
  3596                           ;Main.c: 143: actualtime=0;
  3597  000B5A  0E00               	movlw	0
  3598  000B5C  6E26               	movwf	_actualtime+1,c
  3599  000B5E  0E00               	movlw	0
  3600  000B60  6E25               	movwf	_actualtime,c
  3601                           
  3602                           ;Main.c: 144: lightcounter=0;
  3603  000B62  0E00               	movlw	0
  3604  000B64  0100               	movlb	0	; () banked
  3605  000B66  6FBB               	movwf	(_lightcounter+1)& (0+255),b
  3606  000B68  0E00               	movlw	0
  3607  000B6A  6FBA               	movwf	_lightcounter& (0+255),b
  3608                           
  3609                           ; BSR set to: 0
  3610                           ;Main.c: 146: timetostartlight=totaldaytime-lightperday;
  3611  000B6C  C03C  F013         	movff	_lightperday,??_HighISR
  3612  000B70  C03D  F014         	movff	_lightperday+1,??_HighISR+1
  3613  000B74  1E13               	comf	??_HighISR,f,c
  3614  000B76  1E14               	comf	??_HighISR+1,f,c
  3615  000B78  4A13               	infsnz	??_HighISR,f,c
  3616  000B7A  2A14               	incf	??_HighISR+1,f,c
  3617  000B7C  503E               	movf	_totaldaytime,w,c
  3618  000B7E  2413               	addwf	??_HighISR,w,c
  3619  000B80  0100               	movlb	0	; () banked
  3620  000B82  6FBC               	movwf	_timetostartlight& (0+255),b
  3621  000B84  503F               	movf	_totaldaytime+1,w,c
  3622  000B86  2014               	addwfc	??_HighISR+1,w,c
  3623  000B88  0100               	movlb	0	; () banked
  3624  000B8A  6FBD               	movwf	(_timetostartlight+1)& (0+255),b
  3625  000B8C                     i2l2095:
  3626                           
  3627                           ;Main.c: 147: }
  3628                           ;Main.c: 148: }
  3629                           ;Main.c: 149: TMR0ON = 0;
  3630  000B8C  9ED5               	bcf	4053,7,c	;volatile
  3631                           
  3632                           ;Main.c: 150: TMR0_WRITE_HIGH(0xB);
  3633  000B8E  0E0B               	movlw	11
  3634  000B90  EC0C  F009         	call	i2_TMR0_WRITE_HIGH
  3635                           
  3636                           ;Main.c: 151: TMR0_WRITE_LOW(0xD0);
  3637  000B94  0ED0               	movlw	208
  3638  000B96  EC08  F009         	call	i2_TMR0_WRITE_LOW
  3639                           
  3640                           ;Main.c: 152: TMR0ON = 1;
  3641  000B9A  8ED5               	bsf	4053,7,c	;volatile
  3642  000B9C                     i2l2103:
  3643                           
  3644                           ;Main.c: 153: }
  3645                           ;Main.c: 156: if (CCP1IF){
  3646  000B9C  A49E               	btfss	3998,2,c	;volatile
  3647  000B9E  D015               	goto	i2l145
  3648                           
  3649                           ;Main.c: 157: CCP1IF=0;
  3650  000BA0  949E               	bcf	3998,2,c	;volatile
  3651                           
  3652                           ;Main.c: 158: DHT_StateMachine[state]();
  3653  000BA2  5038               	movf	_state,w,c
  3654  000BA4  0D02               	mullw	2
  3655  000BA6  0EE7               	movlw	low _DHT_StateMachine
  3656  000BA8  24F3               	addwf	prodl,w,c
  3657  000BAA  6ED9               	movwf	fsr2l,c
  3658  000BAC  0E00               	movlw	high _DHT_StateMachine
  3659  000BAE  20F4               	addwfc	prodh,w,c
  3660  000BB0  6EDA               	movwf	fsr2h,c
  3661  000BB2  D801               	call	i2u109_48
  3662  000BB4  D00A               	goto	i2l145
  3663  000BB6                     i2u109_48:
  3664  000BB6  0005               	push	
  3665  000BB8  6EFA               	movwf	pclath,c
  3666  000BBA  50DE               	movf	postinc2,w,c
  3667  000BBC  6EFD               	movwf	tosl,c
  3668  000BBE  50DE               	movf	postinc2,w,c
  3669  000BC0  6EFE               	movwf	tosh,c
  3670  000BC2  50F8               	movf	tblptru,w,c
  3671  000BC4  6EFF               	movwf	tosu,c
  3672  000BC6  50FA               	movf	pclath,w,c
  3673  000BC8  0012               	return		;indir
  3674  000BCA                     i2l145:
  3675  000BCA  C022  FFF5         	movff	??_HighISR+15,tablat
  3676  000BCE  C021  FFF8         	movff	??_HighISR+14,tblptru
  3677  000BD2  C020  FFF7         	movff	??_HighISR+13,tblptrh
  3678  000BD6  C01F  FFF6         	movff	??_HighISR+12,tblptrl
  3679  000BDA  C01E  FFF4         	movff	??_HighISR+11,prodh
  3680  000BDE  C01D  FFF3         	movff	??_HighISR+10,prodl
  3681  000BE2  C01C  FFDA         	movff	??_HighISR+9,fsr2h
  3682  000BE6  C01B  FFD9         	movff	??_HighISR+8,fsr2l
  3683  000BEA  C01A  FFE2         	movff	??_HighISR+7,fsr1h
  3684  000BEE  C019  FFE1         	movff	??_HighISR+6,fsr1l
  3685  000BF2  C018  FFEA         	movff	??_HighISR+5,fsr0h
  3686  000BF6  C017  FFE9         	movff	??_HighISR+4,fsr0l
  3687  000BFA  C016  FFFB         	movff	??_HighISR+3,pclatu
  3688  000BFE  C015  FFFA         	movff	??_HighISR+2,pclath
  3689  000C02  9245               	bcf	btemp,1,c	;clear compiler interrupt flag (level 2)
  3690  000C04  0011               	retfie		f
  3691  000C06                     __end_of_HighISR:
  3692                           	opt stack 0
  3693                           tosu	equ	0xFFF
  3694                           tosh	equ	0xFFE
  3695                           tosl	equ	0xFFD
  3696                           pclatu	equ	0xFFB
  3697                           pclath	equ	0xFFA
  3698                           tblptru	equ	0xFF8
  3699                           tblptrh	equ	0xFF7
  3700                           tblptrl	equ	0xFF6
  3701                           tablat	equ	0xFF5
  3702                           prodh	equ	0xFF4
  3703                           prodl	equ	0xFF3
  3704                           intcon	equ	0xFF2
  3705                           intcon2	equ	0xFF1
  3706                           intcon3	equ	0xFF0
  3707                           postinc0	equ	0xFEE
  3708                           fsr0h	equ	0xFEA
  3709                           fsr0l	equ	0xFE9
  3710                           wreg	equ	0xFE8
  3711                           postdec1	equ	0xFE5
  3712                           fsr1h	equ	0xFE2
  3713                           fsr1l	equ	0xFE1
  3714                           indf2	equ	0xFDF
  3715                           postinc2	equ	0xFDE
  3716                           fsr2h	equ	0xFDA
  3717                           fsr2l	equ	0xFD9
  3718                           status	equ	0xFD8
  3719                           
  3720 ;; *************** function i2_TurnOnLights *****************
  3721 ;; Defined at:
  3722 ;;		line 12 in file "LedDriver.c"
  3723 ;; Parameters:    Size  Location     Type
  3724 ;;		None
  3725 ;; Auto vars:     Size  Location     Type
  3726 ;;		None
  3727 ;; Return value:  Size  Location     Type
  3728 ;;                  2    0[None  ] int 
  3729 ;; Registers used:
  3730 ;;		wreg, status,2, status,0, prodl, prodh, cstack
  3731 ;; Tracked objects:
  3732 ;;		On entry : 0/0
  3733 ;;		On exit  : 0/0
  3734 ;;		Unchanged: 0/0
  3735 ;; Data sizes:     COMRAM   BANK0   BANK1   BANK2   BANK3   BANK4   BANK5   BANK6   BANK7
  3736 ;;      Params:         0       0       0       0       0       0       0       0       0
  3737 ;;      Locals:         0       0       0       0       0       0       0       0       0
  3738 ;;      Temps:          0       0       0       0       0       0       0       0       0
  3739 ;;      Totals:         0       0       0       0       0       0       0       0       0
  3740 ;;Total ram usage:        0 bytes
  3741 ;; Hardware stack levels used:    1
  3742 ;; Hardware stack levels required when called:    3
  3743 ;; This function calls:
  3744 ;;		i2_SetPWM
  3745 ;;		i2_StartPWM
  3746 ;; This function is called by:
  3747 ;;		_HighISR
  3748 ;; This function uses a non-reentrant model
  3749 ;;
  3750                           
  3751                           	psect	text27
  3752  001134                     __ptext27:
  3753                           	opt stack 0
  3754  001134                     i2_TurnOnLights:
  3755                           	opt stack 21
  3756                           
  3757                           ;LedDriver.c: 13: if(!lightstate_f){
  3758                           
  3759                           ;incstack = 0
  3760  001134  B03B               	btfsc	_lightstate_f/(0+8),_lightstate_f& (0+7),c
  3761  001136  0012               	return	
  3762                           
  3763                           ;LedDriver.c: 14: SetPWM(50);
  3764  001138  0E32               	movlw	50
  3765  00113A  EC85  F008         	call	i2_SetPWM
  3766                           
  3767                           ;LedDriver.c: 15: StartPWM();
  3768  00113E  EC04  F009         	call	i2_StartPWM	;wreg free
  3769                           
  3770                           ;LedDriver.c: 16: lightstate_f=1;
  3771  001142  803B               	bsf	_lightstate_f/(0+8),_lightstate_f& (0+7),c
  3772  001144  0012               	return	
  3773  001146                     __end_ofi2_TurnOnLights:
  3774                           	opt stack 0
  3775                           tosu	equ	0xFFF
  3776                           tosh	equ	0xFFE
  3777                           tosl	equ	0xFFD
  3778                           pclatu	equ	0xFFB
  3779                           pclath	equ	0xFFA
  3780                           tblptru	equ	0xFF8
  3781                           tblptrh	equ	0xFF7
  3782                           tblptrl	equ	0xFF6
  3783                           tablat	equ	0xFF5
  3784                           prodh	equ	0xFF4
  3785                           prodl	equ	0xFF3
  3786                           intcon	equ	0xFF2
  3787                           intcon2	equ	0xFF1
  3788                           intcon3	equ	0xFF0
  3789                           postinc0	equ	0xFEE
  3790                           fsr0h	equ	0xFEA
  3791                           fsr0l	equ	0xFE9
  3792                           wreg	equ	0xFE8
  3793                           postdec1	equ	0xFE5
  3794                           fsr1h	equ	0xFE2
  3795                           fsr1l	equ	0xFE1
  3796                           indf2	equ	0xFDF
  3797                           postinc2	equ	0xFDE
  3798                           fsr2h	equ	0xFDA
  3799                           fsr2l	equ	0xFD9
  3800                           status	equ	0xFD8
  3801                           
  3802 ;; *************** function i2_StartPWM *****************
  3803 ;; Defined at:
  3804 ;;		line 17 in file "PWM.c"
  3805 ;; Parameters:    Size  Location     Type
  3806 ;;		None
  3807 ;; Auto vars:     Size  Location     Type
  3808 ;;		None
  3809 ;; Return value:  Size  Location     Type
  3810 ;;                  1    wreg      void 
  3811 ;; Registers used:
  3812 ;;		wreg, status,2
  3813 ;; Tracked objects:
  3814 ;;		On entry : 0/0
  3815 ;;		On exit  : 0/0
  3816 ;;		Unchanged: 0/0
  3817 ;; Data sizes:     COMRAM   BANK0   BANK1   BANK2   BANK3   BANK4   BANK5   BANK6   BANK7
  3818 ;;      Params:         0       0       0       0       0       0       0       0       0
  3819 ;;      Locals:         0       0       0       0       0       0       0       0       0
  3820 ;;      Temps:          0       0       0       0       0       0       0       0       0
  3821 ;;      Totals:         0       0       0       0       0       0       0       0       0
  3822 ;;Total ram usage:        0 bytes
  3823 ;; Hardware stack levels used:    1
  3824 ;; This function calls:
  3825 ;;		Nothing
  3826 ;; This function is called by:
  3827 ;;		i2_TurnOnLights
  3828 ;; This function uses a non-reentrant model
  3829 ;;
  3830                           
  3831                           	psect	text28
  3832  001208                     __ptext28:
  3833                           	opt stack 0
  3834  001208                     i2_StartPWM:
  3835                           	opt stack 23
  3836                           
  3837                           ;PWM.c: 18: CCP2CON=0x0C;
  3838                           
  3839                           ;incstack = 0
  3840  001208  0E0C               	movlw	12
  3841  00120A  6EBA               	movwf	4026,c	;volatile
  3842                           
  3843                           ;PWM.c: 19: T1OSCEN=1U;
  3844  00120C  86CD               	bsf	4045,3,c	;volatile
  3845  00120E  0012               	return		;funcret
  3846  001210                     __end_ofi2_StartPWM:
  3847                           	opt stack 0
  3848                           tosu	equ	0xFFF
  3849                           tosh	equ	0xFFE
  3850                           tosl	equ	0xFFD
  3851                           pclatu	equ	0xFFB
  3852                           pclath	equ	0xFFA
  3853                           tblptru	equ	0xFF8
  3854                           tblptrh	equ	0xFF7
  3855                           tblptrl	equ	0xFF6
  3856                           tablat	equ	0xFF5
  3857                           prodh	equ	0xFF4
  3858                           prodl	equ	0xFF3
  3859                           intcon	equ	0xFF2
  3860                           intcon2	equ	0xFF1
  3861                           intcon3	equ	0xFF0
  3862                           postinc0	equ	0xFEE
  3863                           fsr0h	equ	0xFEA
  3864                           fsr0l	equ	0xFE9
  3865                           wreg	equ	0xFE8
  3866                           postdec1	equ	0xFE5
  3867                           fsr1h	equ	0xFE2
  3868                           fsr1l	equ	0xFE1
  3869                           indf2	equ	0xFDF
  3870                           postinc2	equ	0xFDE
  3871                           fsr2h	equ	0xFDA
  3872                           fsr2l	equ	0xFD9
  3873                           status	equ	0xFD8
  3874                           
  3875 ;; *************** function i2_SetPWM *****************
  3876 ;; Defined at:
  3877 ;;		line 44 in file "PWM.c"
  3878 ;; Parameters:    Size  Location     Type
  3879 ;;  dutycycle       1    wreg     unsigned char 
  3880 ;; Auto vars:     Size  Location     Type
  3881 ;;  dutycycle       1   17[COMRAM] unsigned char 
  3882 ;; Return value:  Size  Location     Type
  3883 ;;                  1    wreg      void 
  3884 ;; Registers used:
  3885 ;;		wreg, status,2, status,0, prodl, prodh, cstack
  3886 ;; Tracked objects:
  3887 ;;		On entry : 0/0
  3888 ;;		On exit  : 0/0
  3889 ;;		Unchanged: 0/0
  3890 ;; Data sizes:     COMRAM   BANK0   BANK1   BANK2   BANK3   BANK4   BANK5   BANK6   BANK7
  3891 ;;      Params:         0       0       0       0       0       0       0       0       0
  3892 ;;      Locals:         1       0       0       0       0       0       0       0       0
  3893 ;;      Temps:          0       0       0       0       0       0       0       0       0
  3894 ;;      Totals:         1       0       0       0       0       0       0       0       0
  3895 ;;Total ram usage:        1 bytes
  3896 ;; Hardware stack levels used:    1
  3897 ;; Hardware stack levels required when called:    2
  3898 ;; This function calls:
  3899 ;;		i2_SetDutyCycle
  3900 ;;		i2_SetPeriod
  3901 ;; This function is called by:
  3902 ;;		i2_TurnOnLights
  3903 ;; This function uses a non-reentrant model
  3904 ;;
  3905                           
  3906                           	psect	text29
  3907  00110A                     __ptext29:
  3908                           	opt stack 0
  3909  00110A                     i2_SetPWM:
  3910                           	opt stack 21
  3911                           
  3912                           ;incstack = 0
  3913                           ;i2SetPWM@dutycycle stored from wreg
  3914  00110A  6E12               	movwf	i2SetPWM@dutycycle,c
  3915                           
  3916                           ;PWM.c: 45: T2CON=0x00;
  3917  00110C  0E00               	movlw	0
  3918  00110E  6ECA               	movwf	4042,c	;volatile
  3919                           
  3920                           ;PWM.c: 46: SetPeriod();
  3921  001110  EC13  F009         	call	i2_SetPeriod	;wreg free
  3922                           
  3923                           ;PWM.c: 47: SetDutyCycle(dutycycle);
  3924  001114  5012               	movf	i2SetPWM@dutycycle,w,c
  3925  001116  EC61  F007         	call	i2_SetDutyCycle
  3926                           
  3927                           ;PWM.c: 48: (TRISBbits.TRISB3 = 0);
  3928  00111A  9693               	bcf	3987,3,c	;volatile
  3929                           
  3930                           ;PWM.c: 49: T2CON=0b110;
  3931  00111C  0E06               	movlw	6
  3932  00111E  6ECA               	movwf	4042,c	;volatile
  3933  001120  0012               	return		;funcret
  3934  001122                     __end_ofi2_SetPWM:
  3935                           	opt stack 0
  3936                           tosu	equ	0xFFF
  3937                           tosh	equ	0xFFE
  3938                           tosl	equ	0xFFD
  3939                           pclatu	equ	0xFFB
  3940                           pclath	equ	0xFFA
  3941                           tblptru	equ	0xFF8
  3942                           tblptrh	equ	0xFF7
  3943                           tblptrl	equ	0xFF6
  3944                           tablat	equ	0xFF5
  3945                           prodh	equ	0xFF4
  3946                           prodl	equ	0xFF3
  3947                           intcon	equ	0xFF2
  3948                           intcon2	equ	0xFF1
  3949                           intcon3	equ	0xFF0
  3950                           postinc0	equ	0xFEE
  3951                           fsr0h	equ	0xFEA
  3952                           fsr0l	equ	0xFE9
  3953                           wreg	equ	0xFE8
  3954                           postdec1	equ	0xFE5
  3955                           fsr1h	equ	0xFE2
  3956                           fsr1l	equ	0xFE1
  3957                           indf2	equ	0xFDF
  3958                           postinc2	equ	0xFDE
  3959                           fsr2h	equ	0xFDA
  3960                           fsr2l	equ	0xFD9
  3961                           status	equ	0xFD8
  3962                           
  3963 ;; *************** function i2_SetPeriod *****************
  3964 ;; Defined at:
  3965 ;;		line 28 in file "PWM.c"
  3966 ;; Parameters:    Size  Location     Type
  3967 ;;		None
  3968 ;; Auto vars:     Size  Location     Type
  3969 ;;		None
  3970 ;; Return value:  Size  Location     Type
  3971 ;;                  1    wreg      void 
  3972 ;; Registers used:
  3973 ;;		wreg, status,2
  3974 ;; Tracked objects:
  3975 ;;		On entry : 0/0
  3976 ;;		On exit  : 0/0
  3977 ;;		Unchanged: 0/0
  3978 ;; Data sizes:     COMRAM   BANK0   BANK1   BANK2   BANK3   BANK4   BANK5   BANK6   BANK7
  3979 ;;      Params:         0       0       0       0       0       0       0       0       0
  3980 ;;      Locals:         0       0       0       0       0       0       0       0       0
  3981 ;;      Temps:          0       0       0       0       0       0       0       0       0
  3982 ;;      Totals:         0       0       0       0       0       0       0       0       0
  3983 ;;Total ram usage:        0 bytes
  3984 ;; Hardware stack levels used:    1
  3985 ;; This function calls:
  3986 ;;		Nothing
  3987 ;; This function is called by:
  3988 ;;		i2_SetPWM
  3989 ;; This function uses a non-reentrant model
  3990 ;;
  3991                           
  3992                           	psect	text30
  3993  001226                     __ptext30:
  3994                           	opt stack 0
  3995  001226                     i2_SetPeriod:
  3996                           	opt stack 22
  3997                           
  3998                           ;PWM.c: 30: PR2=200;
  3999                           
  4000                           ;incstack = 0
  4001  001226  0EC8               	movlw	200
  4002  001228  6ECB               	movwf	4043,c	;volatile
  4003  00122A  0012               	return		;funcret
  4004  00122C                     __end_ofi2_SetPeriod:
  4005                           	opt stack 0
  4006                           tosu	equ	0xFFF
  4007                           tosh	equ	0xFFE
  4008                           tosl	equ	0xFFD
  4009                           pclatu	equ	0xFFB
  4010                           pclath	equ	0xFFA
  4011                           tblptru	equ	0xFF8
  4012                           tblptrh	equ	0xFF7
  4013                           tblptrl	equ	0xFF6
  4014                           tablat	equ	0xFF5
  4015                           prodh	equ	0xFF4
  4016                           prodl	equ	0xFF3
  4017                           intcon	equ	0xFF2
  4018                           intcon2	equ	0xFF1
  4019                           intcon3	equ	0xFF0
  4020                           postinc0	equ	0xFEE
  4021                           fsr0h	equ	0xFEA
  4022                           fsr0l	equ	0xFE9
  4023                           wreg	equ	0xFE8
  4024                           postdec1	equ	0xFE5
  4025                           fsr1h	equ	0xFE2
  4026                           fsr1l	equ	0xFE1
  4027                           indf2	equ	0xFDF
  4028                           postinc2	equ	0xFDE
  4029                           fsr2h	equ	0xFDA
  4030                           fsr2l	equ	0xFD9
  4031                           status	equ	0xFD8
  4032                           
  4033 ;; *************** function i2_SetDutyCycle *****************
  4034 ;; Defined at:
  4035 ;;		line 33 in file "PWM.c"
  4036 ;; Parameters:    Size  Location     Type
  4037 ;;  dutycycle       1    wreg     unsigned char 
  4038 ;; Auto vars:     Size  Location     Type
  4039 ;;  dutycycle       1   16[COMRAM] unsigned char 
  4040 ;; Return value:  Size  Location     Type
  4041 ;;                  1    wreg      void 
  4042 ;; Registers used:
  4043 ;;		wreg, status,2, status,0, prodl, prodh, cstack
  4044 ;; Tracked objects:
  4045 ;;		On entry : 0/0
  4046 ;;		On exit  : 0/0
  4047 ;;		Unchanged: 0/0
  4048 ;; Data sizes:     COMRAM   BANK0   BANK1   BANK2   BANK3   BANK4   BANK5   BANK6   BANK7
  4049 ;;      Params:         0       0       0       0       0       0       0       0       0
  4050 ;;      Locals:         1       0       0       0       0       0       0       0       0
  4051 ;;      Temps:          2       0       0       0       0       0       0       0       0
  4052 ;;      Totals:         3       0       0       0       0       0       0       0       0
  4053 ;;Total ram usage:        3 bytes
  4054 ;; Hardware stack levels used:    1
  4055 ;; Hardware stack levels required when called:    1
  4056 ;; This function calls:
  4057 ;;		i2___awdiv
  4058 ;;		i2___wmul
  4059 ;; This function is called by:
  4060 ;;		i2_SetPWM
  4061 ;; This function uses a non-reentrant model
  4062 ;;
  4063                           
  4064                           	psect	text31
  4065  000EC2                     __ptext31:
  4066                           	opt stack 0
  4067  000EC2                     i2_SetDutyCycle:
  4068                           	opt stack 21
  4069                           
  4070                           ;incstack = 0
  4071                           ;i2SetDutyCycle@dutycycle stored from wreg
  4072  000EC2  6E11               	movwf	i2SetDutyCycle@dutycycle,c
  4073                           
  4074                           ;PWM.c: 34: PWMValue=((dutycycle)*470)/100;
  4075  000EC4  C011  F001         	movff	i2SetDutyCycle@dutycycle,i2___wmul@multiplier
  4076  000EC8  6A02               	clrf	i2___wmul@multiplier+1,c
  4077  000ECA  0E01               	movlw	1
  4078  000ECC  6E04               	movwf	i2___wmul@multiplicand+1,c
  4079  000ECE  0ED6               	movlw	214
  4080  000ED0  6E03               	movwf	i2___wmul@multiplicand,c
  4081  000ED2  EC42  F008         	call	i2___wmul	;wreg free
  4082  000ED6  C001  F007         	movff	?i2___wmul,i2___awdiv@dividend
  4083  000EDA  C002  F008         	movff	?i2___wmul+1,i2___awdiv@dividend+1
  4084  000EDE  0E00               	movlw	0
  4085  000EE0  6E0A               	movwf	i2___awdiv@divisor+1,c
  4086  000EE2  0E64               	movlw	100
  4087  000EE4  6E09               	movwf	i2___awdiv@divisor,c
  4088  000EE6  ECB0  F006         	call	i2___awdiv	;wreg free
  4089  000EEA  C007  F023         	movff	?i2___awdiv,_PWMValue
  4090  000EEE  C008  F024         	movff	?i2___awdiv+1,_PWMValue+1
  4091                           
  4092                           ;PWM.c: 35: LSb=PWMValue&0x03;
  4093  000EF2  0E03               	movlw	3
  4094  000EF4  1423               	andwf	_PWMValue,w,c
  4095  000EF6  0100               	movlb	0	; () banked
  4096  000EF8  6FB0               	movwf	_LSb& (0+255),b
  4097  000EFA  0100               	movlb	0	; () banked
  4098  000EFC  6BB1               	clrf	(_LSb+1)& (0+255),b
  4099                           
  4100                           ; BSR set to: 0
  4101                           ;PWM.c: 36: MSb=PWMValue>>2;
  4102  000EFE  C023  F00F         	movff	_PWMValue,??i2_SetDutyCycle
  4103  000F02  C024  F010         	movff	_PWMValue+1,??i2_SetDutyCycle+1
  4104  000F06  90D8               	bcf	status,0,c
  4105  000F08  3210               	rrcf	??i2_SetDutyCycle+1,f,c
  4106  000F0A  320F               	rrcf	??i2_SetDutyCycle,f,c
  4107  000F0C  90D8               	bcf	status,0,c
  4108  000F0E  3210               	rrcf	??i2_SetDutyCycle+1,f,c
  4109  000F10  320F               	rrcf	??i2_SetDutyCycle,f,c
  4110  000F12  C00F  F0B4         	movff	??i2_SetDutyCycle,_MSb
  4111  000F16  C010  F0B5         	movff	??i2_SetDutyCycle+1,_MSb+1
  4112                           
  4113                           ; BSR set to: 0
  4114                           ;PWM.c: 38: CCPR2L=MSb;
  4115  000F1A  C0B4  FFBB         	movff	_MSb,4027	;volatile
  4116                           
  4117                           ; BSR set to: 0
  4118                           ;PWM.c: 39: CCP2CON=CCP2CON|(LSb<<4);
  4119  000F1E  0100               	movlb	0	; () banked
  4120  000F20  39B0               	swapf	_LSb& (0+255),w,b
  4121  000F22  0BF0               	andlw	240
  4122  000F24  10BA               	iorwf	4026,w,c
  4123  000F26  6EBA               	movwf	4026,c	;volatile
  4124                           
  4125                           ; BSR set to: 0
  4126  000F28  0012               	return		;funcret
  4127  000F2A                     __end_ofi2_SetDutyCycle:
  4128                           	opt stack 0
  4129                           tosu	equ	0xFFF
  4130                           tosh	equ	0xFFE
  4131                           tosl	equ	0xFFD
  4132                           pclatu	equ	0xFFB
  4133                           pclath	equ	0xFFA
  4134                           tblptru	equ	0xFF8
  4135                           tblptrh	equ	0xFF7
  4136                           tblptrl	equ	0xFF6
  4137                           tablat	equ	0xFF5
  4138                           prodh	equ	0xFF4
  4139                           prodl	equ	0xFF3
  4140                           intcon	equ	0xFF2
  4141                           intcon2	equ	0xFF1
  4142                           intcon3	equ	0xFF0
  4143                           postinc0	equ	0xFEE
  4144                           fsr0h	equ	0xFEA
  4145                           fsr0l	equ	0xFE9
  4146                           wreg	equ	0xFE8
  4147                           postdec1	equ	0xFE5
  4148                           fsr1h	equ	0xFE2
  4149                           fsr1l	equ	0xFE1
  4150                           indf2	equ	0xFDF
  4151                           postinc2	equ	0xFDE
  4152                           fsr2h	equ	0xFDA
  4153                           fsr2l	equ	0xFD9
  4154                           status	equ	0xFD8
  4155                           
  4156 ;; *************** function i2___wmul *****************
  4157 ;; Defined at:
  4158 ;;		line 15 in file "C:\Program Files (x86)\Microchip\xc8\v1.36\sources\common\Umul16.c"
  4159 ;; Parameters:    Size  Location     Type
  4160 ;;  multiplier      2    0[COMRAM] unsigned int 
  4161 ;;  multiplicand    2    2[COMRAM] unsigned int 
  4162 ;; Auto vars:     Size  Location     Type
  4163 ;;  __wmul          2    4[COMRAM] unsigned int 
  4164 ;; Return value:  Size  Location     Type
  4165 ;;                  2    0[COMRAM] unsigned int 
  4166 ;; Registers used:
  4167 ;;		wreg, status,2, status,0, prodl, prodh
  4168 ;; Tracked objects:
  4169 ;;		On entry : 0/0
  4170 ;;		On exit  : 0/0
  4171 ;;		Unchanged: 0/0
  4172 ;; Data sizes:     COMRAM   BANK0   BANK1   BANK2   BANK3   BANK4   BANK5   BANK6   BANK7
  4173 ;;      Params:         4       0       0       0       0       0       0       0       0
  4174 ;;      Locals:         2       0       0       0       0       0       0       0       0
  4175 ;;      Temps:          0       0       0       0       0       0       0       0       0
  4176 ;;      Totals:         6       0       0       0       0       0       0       0       0
  4177 ;;Total ram usage:        6 bytes
  4178 ;; Hardware stack levels used:    1
  4179 ;; This function calls:
  4180 ;;		Nothing
  4181 ;; This function is called by:
  4182 ;;		i2_SetDutyCycle
  4183 ;; This function uses a non-reentrant model
  4184 ;;
  4185                           
  4186                           	psect	text32
  4187  001084                     __ptext32:
  4188                           	opt stack 0
  4189  001084                     i2___wmul:
  4190                           	opt stack 21
  4191                           
  4192                           ; BSR set to: 0
  4193                           ;incstack = 0
  4194  001084  5001               	movf	i2___wmul@multiplier,w,c
  4195  001086  0203               	mulwf	i2___wmul@multiplicand,c
  4196  001088  CFF3 F005          	movff	prodl,i2___wmul@product
  4197  00108C  CFF4 F006          	movff	prodh,i2___wmul@product+1
  4198  001090  5001               	movf	i2___wmul@multiplier,w,c
  4199  001092  0204               	mulwf	i2___wmul@multiplicand+1,c
  4200  001094  50F3               	movf	prodl,w,c
  4201  001096  2606               	addwf	i2___wmul@product+1,f,c
  4202  001098  5002               	movf	i2___wmul@multiplier+1,w,c
  4203  00109A  0203               	mulwf	i2___wmul@multiplicand,c
  4204  00109C  50F3               	movf	prodl,w,c
  4205  00109E  2606               	addwf	i2___wmul@product+1,f,c
  4206  0010A0  C005  F001         	movff	i2___wmul@product,?i2___wmul
  4207  0010A4  C006  F002         	movff	i2___wmul@product+1,?i2___wmul+1
  4208  0010A8  0012               	return	
  4209  0010AA                     __end_ofi2___wmul:
  4210                           	opt stack 0
  4211                           tosu	equ	0xFFF
  4212                           tosh	equ	0xFFE
  4213                           tosl	equ	0xFFD
  4214                           pclatu	equ	0xFFB
  4215                           pclath	equ	0xFFA
  4216                           tblptru	equ	0xFF8
  4217                           tblptrh	equ	0xFF7
  4218                           tblptrl	equ	0xFF6
  4219                           tablat	equ	0xFF5
  4220                           prodh	equ	0xFF4
  4221                           prodl	equ	0xFF3
  4222                           intcon	equ	0xFF2
  4223                           intcon2	equ	0xFF1
  4224                           intcon3	equ	0xFF0
  4225                           postinc0	equ	0xFEE
  4226                           fsr0h	equ	0xFEA
  4227                           fsr0l	equ	0xFE9
  4228                           wreg	equ	0xFE8
  4229                           postdec1	equ	0xFE5
  4230                           fsr1h	equ	0xFE2
  4231                           fsr1l	equ	0xFE1
  4232                           indf2	equ	0xFDF
  4233                           postinc2	equ	0xFDE
  4234                           fsr2h	equ	0xFDA
  4235                           fsr2l	equ	0xFD9
  4236                           status	equ	0xFD8
  4237                           
  4238 ;; *************** function i2___awdiv *****************
  4239 ;; Defined at:
  4240 ;;		line 8 in file "C:\Program Files (x86)\Microchip\xc8\v1.36\sources\common\awdiv.c"
  4241 ;; Parameters:    Size  Location     Type
  4242 ;;  dividend        2    6[COMRAM] int 
  4243 ;;  divisor         2    8[COMRAM] int 
  4244 ;; Auto vars:     Size  Location     Type
  4245 ;;  __awdiv         2   12[COMRAM] int 
  4246 ;;  __awdiv         1   11[COMRAM] unsigned char 
  4247 ;;  __awdiv         1   10[COMRAM] unsigned char 
  4248 ;; Return value:  Size  Location     Type
  4249 ;;                  2    6[COMRAM] int 
  4250 ;; Registers used:
  4251 ;;		wreg, status,2, status,0
  4252 ;; Tracked objects:
  4253 ;;		On entry : 0/0
  4254 ;;		On exit  : 0/0
  4255 ;;		Unchanged: 0/0
  4256 ;; Data sizes:     COMRAM   BANK0   BANK1   BANK2   BANK3   BANK4   BANK5   BANK6   BANK7
  4257 ;;      Params:         4       0       0       0       0       0       0       0       0
  4258 ;;      Locals:         4       0       0       0       0       0       0       0       0
  4259 ;;      Temps:          0       0       0       0       0       0       0       0       0
  4260 ;;      Totals:         8       0       0       0       0       0       0       0       0
  4261 ;;Total ram usage:        8 bytes
  4262 ;; Hardware stack levels used:    1
  4263 ;; This function calls:
  4264 ;;		Nothing
  4265 ;; This function is called by:
  4266 ;;		i2_SetDutyCycle
  4267 ;; This function uses a non-reentrant model
  4268 ;;
  4269                           
  4270                           	psect	text33
  4271  000D60                     __ptext33:
  4272                           	opt stack 0
  4273  000D60                     i2___awdiv:
  4274                           	opt stack 21
  4275                           
  4276                           ;incstack = 0
  4277  000D60  0E00               	movlw	0
  4278  000D62  6E0C               	movwf	i2___awdiv@sign,c
  4279  000D64  AE0A               	btfss	i2___awdiv@divisor+1,7,c
  4280  000D66  D006               	goto	i2l1703
  4281  000D68  6C09               	negf	i2___awdiv@divisor,c
  4282  000D6A  1E0A               	comf	i2___awdiv@divisor+1,f,c
  4283  000D6C  B0D8               	btfsc	status,0,c
  4284  000D6E  2A0A               	incf	i2___awdiv@divisor+1,f,c
  4285  000D70  0E01               	movlw	1
  4286  000D72  6E0C               	movwf	i2___awdiv@sign,c
  4287  000D74                     i2l1703:
  4288  000D74  AE08               	btfss	i2___awdiv@dividend+1,7,c
  4289  000D76  D006               	goto	i2l1709
  4290  000D78  6C07               	negf	i2___awdiv@dividend,c
  4291  000D7A  1E08               	comf	i2___awdiv@dividend+1,f,c
  4292  000D7C  B0D8               	btfsc	status,0,c
  4293  000D7E  2A08               	incf	i2___awdiv@dividend+1,f,c
  4294  000D80  0E01               	movlw	1
  4295  000D82  1A0C               	xorwf	i2___awdiv@sign,f,c
  4296  000D84                     i2l1709:
  4297  000D84  0E00               	movlw	0
  4298  000D86  6E0E               	movwf	i2___awdiv@quotient+1,c
  4299  000D88  0E00               	movlw	0
  4300  000D8A  6E0D               	movwf	i2___awdiv@quotient,c
  4301  000D8C  5009               	movf	i2___awdiv@divisor,w,c
  4302  000D8E  100A               	iorwf	i2___awdiv@divisor+1,w,c
  4303  000D90  B4D8               	btfsc	status,2,c
  4304  000D92  D01C               	goto	i2l1731
  4305  000D94  0E01               	movlw	1
  4306  000D96  6E0B               	movwf	i2___awdiv@counter,c
  4307  000D98  D004               	goto	i2l1717
  4308  000D9A                     i2l1715:
  4309  000D9A  90D8               	bcf	status,0,c
  4310  000D9C  3609               	rlcf	i2___awdiv@divisor,f,c
  4311  000D9E  360A               	rlcf	i2___awdiv@divisor+1,f,c
  4312  000DA0  2A0B               	incf	i2___awdiv@counter,f,c
  4313  000DA2                     i2l1717:
  4314  000DA2  AE0A               	btfss	i2___awdiv@divisor+1,7,c
  4315  000DA4  D7FA               	goto	i2l1715
  4316  000DA6                     i2l1719:
  4317  000DA6  90D8               	bcf	status,0,c
  4318  000DA8  360D               	rlcf	i2___awdiv@quotient,f,c
  4319  000DAA  360E               	rlcf	i2___awdiv@quotient+1,f,c
  4320  000DAC  5009               	movf	i2___awdiv@divisor,w,c
  4321  000DAE  5C07               	subwf	i2___awdiv@dividend,w,c
  4322  000DB0  500A               	movf	i2___awdiv@divisor+1,w,c
  4323  000DB2  5808               	subwfb	i2___awdiv@dividend+1,w,c
  4324  000DB4  A0D8               	btfss	status,0,c
  4325  000DB6  D005               	goto	i2l1727
  4326  000DB8  5009               	movf	i2___awdiv@divisor,w,c
  4327  000DBA  5E07               	subwf	i2___awdiv@dividend,f,c
  4328  000DBC  500A               	movf	i2___awdiv@divisor+1,w,c
  4329  000DBE  5A08               	subwfb	i2___awdiv@dividend+1,f,c
  4330  000DC0  800D               	bsf	i2___awdiv@quotient,0,c
  4331  000DC2                     i2l1727:
  4332  000DC2  90D8               	bcf	status,0,c
  4333  000DC4  320A               	rrcf	i2___awdiv@divisor+1,f,c
  4334  000DC6  3209               	rrcf	i2___awdiv@divisor,f,c
  4335  000DC8  2E0B               	decfsz	i2___awdiv@counter,f,c
  4336  000DCA  D7ED               	goto	i2l1719
  4337  000DCC                     i2l1731:
  4338  000DCC  500C               	movf	i2___awdiv@sign,w,c
  4339  000DCE  B4D8               	btfsc	status,2,c
  4340  000DD0  D004               	goto	i2l1735
  4341  000DD2  6C0D               	negf	i2___awdiv@quotient,c
  4342  000DD4  1E0E               	comf	i2___awdiv@quotient+1,f,c
  4343  000DD6  B0D8               	btfsc	status,0,c
  4344  000DD8  2A0E               	incf	i2___awdiv@quotient+1,f,c
  4345  000DDA                     i2l1735:
  4346  000DDA  C00D  F007         	movff	i2___awdiv@quotient,?i2___awdiv
  4347  000DDE  C00E  F008         	movff	i2___awdiv@quotient+1,?i2___awdiv+1
  4348  000DE2  0012               	return	
  4349  000DE4                     __end_ofi2___awdiv:
  4350                           	opt stack 0
  4351                           tosu	equ	0xFFF
  4352                           tosh	equ	0xFFE
  4353                           tosl	equ	0xFFD
  4354                           pclatu	equ	0xFFB
  4355                           pclath	equ	0xFFA
  4356                           tblptru	equ	0xFF8
  4357                           tblptrh	equ	0xFF7
  4358                           tblptrl	equ	0xFF6
  4359                           tablat	equ	0xFF5
  4360                           prodh	equ	0xFF4
  4361                           prodl	equ	0xFF3
  4362                           intcon	equ	0xFF2
  4363                           intcon2	equ	0xFF1
  4364                           intcon3	equ	0xFF0
  4365                           postinc0	equ	0xFEE
  4366                           fsr0h	equ	0xFEA
  4367                           fsr0l	equ	0xFE9
  4368                           wreg	equ	0xFE8
  4369                           postdec1	equ	0xFE5
  4370                           fsr1h	equ	0xFE2
  4371                           fsr1l	equ	0xFE1
  4372                           indf2	equ	0xFDF
  4373                           postinc2	equ	0xFDE
  4374                           fsr2h	equ	0xFDA
  4375                           fsr2l	equ	0xFD9
  4376                           status	equ	0xFD8
  4377                           
  4378 ;; *************** function i2_TMR0_WRITE_LOW *****************
  4379 ;; Defined at:
  4380 ;;		line 79 in file "Timer_0.c"
  4381 ;; Parameters:    Size  Location     Type
  4382 ;;  valorLow        1    wreg     unsigned char 
  4383 ;; Auto vars:     Size  Location     Type
  4384 ;;  valorLow        1    0[COMRAM] unsigned char 
  4385 ;; Return value:  Size  Location     Type
  4386 ;;                  1    wreg      void 
  4387 ;; Registers used:
  4388 ;;		wreg
  4389 ;; Tracked objects:
  4390 ;;		On entry : 0/0
  4391 ;;		On exit  : 0/0
  4392 ;;		Unchanged: 0/0
  4393 ;; Data sizes:     COMRAM   BANK0   BANK1   BANK2   BANK3   BANK4   BANK5   BANK6   BANK7
  4394 ;;      Params:         0       0       0       0       0       0       0       0       0
  4395 ;;      Locals:         1       0       0       0       0       0       0       0       0
  4396 ;;      Temps:          0       0       0       0       0       0       0       0       0
  4397 ;;      Totals:         1       0       0       0       0       0       0       0       0
  4398 ;;Total ram usage:        1 bytes
  4399 ;; Hardware stack levels used:    1
  4400 ;; This function calls:
  4401 ;;		Nothing
  4402 ;; This function is called by:
  4403 ;;		_HighISR
  4404 ;; This function uses a non-reentrant model
  4405 ;;
  4406                           
  4407                           	psect	text34
  4408  001210                     __ptext34:
  4409                           	opt stack 0
  4410  001210                     i2_TMR0_WRITE_LOW:
  4411                           	opt stack 24
  4412                           
  4413                           ;incstack = 0
  4414                           ;i2TMR0_WRITE_LOW@valorLow stored from wreg
  4415  001210  6E01               	movwf	i2TMR0_WRITE_LOW@valorLow,c
  4416                           
  4417                           ;Timer_0.c: 81: TMR0L=valorLow;
  4418  001212  C001  FFD6         	movff	i2TMR0_WRITE_LOW@valorLow,4054	;volatile
  4419  001216  0012               	return		;funcret
  4420  001218                     __end_ofi2_TMR0_WRITE_LOW:
  4421                           	opt stack 0
  4422                           tosu	equ	0xFFF
  4423                           tosh	equ	0xFFE
  4424                           tosl	equ	0xFFD
  4425                           pclatu	equ	0xFFB
  4426                           pclath	equ	0xFFA
  4427                           tblptru	equ	0xFF8
  4428                           tblptrh	equ	0xFF7
  4429                           tblptrl	equ	0xFF6
  4430                           tablat	equ	0xFF5
  4431                           prodh	equ	0xFF4
  4432                           prodl	equ	0xFF3
  4433                           intcon	equ	0xFF2
  4434                           intcon2	equ	0xFF1
  4435                           intcon3	equ	0xFF0
  4436                           postinc0	equ	0xFEE
  4437                           fsr0h	equ	0xFEA
  4438                           fsr0l	equ	0xFE9
  4439                           wreg	equ	0xFE8
  4440                           postdec1	equ	0xFE5
  4441                           fsr1h	equ	0xFE2
  4442                           fsr1l	equ	0xFE1
  4443                           indf2	equ	0xFDF
  4444                           postinc2	equ	0xFDE
  4445                           fsr2h	equ	0xFDA
  4446                           fsr2l	equ	0xFD9
  4447                           status	equ	0xFD8
  4448                           
  4449 ;; *************** function i2_TMR0_WRITE_HIGH *****************
  4450 ;; Defined at:
  4451 ;;		line 66 in file "Timer_0.c"
  4452 ;; Parameters:    Size  Location     Type
  4453 ;;  valorHigh       1    wreg     unsigned char 
  4454 ;; Auto vars:     Size  Location     Type
  4455 ;;  valorHigh       1    0[COMRAM] unsigned char 
  4456 ;; Return value:  Size  Location     Type
  4457 ;;                  1    wreg      void 
  4458 ;; Registers used:
  4459 ;;		wreg
  4460 ;; Tracked objects:
  4461 ;;		On entry : 0/0
  4462 ;;		On exit  : 0/0
  4463 ;;		Unchanged: 0/0
  4464 ;; Data sizes:     COMRAM   BANK0   BANK1   BANK2   BANK3   BANK4   BANK5   BANK6   BANK7
  4465 ;;      Params:         0       0       0       0       0       0       0       0       0
  4466 ;;      Locals:         1       0       0       0       0       0       0       0       0
  4467 ;;      Temps:          0       0       0       0       0       0       0       0       0
  4468 ;;      Totals:         1       0       0       0       0       0       0       0       0
  4469 ;;Total ram usage:        1 bytes
  4470 ;; Hardware stack levels used:    1
  4471 ;; This function calls:
  4472 ;;		Nothing
  4473 ;; This function is called by:
  4474 ;;		_HighISR
  4475 ;; This function uses a non-reentrant model
  4476 ;;
  4477                           
  4478                           	psect	text35
  4479  001218                     __ptext35:
  4480                           	opt stack 0
  4481  001218                     i2_TMR0_WRITE_HIGH:
  4482                           	opt stack 24
  4483                           
  4484                           ;incstack = 0
  4485                           ;i2TMR0_WRITE_HIGH@valorHigh stored from wreg
  4486  001218  6E01               	movwf	i2TMR0_WRITE_HIGH@valorHigh,c
  4487                           
  4488                           ;Timer_0.c: 68: TMR0H=valorHigh;
  4489  00121A  C001  FFD7         	movff	i2TMR0_WRITE_HIGH@valorHigh,4055	;volatile
  4490  00121E  0012               	return		;funcret
  4491  001220                     __end_ofi2_TMR0_WRITE_HIGH:
  4492                           	opt stack 0
  4493                           tosu	equ	0xFFF
  4494                           tosh	equ	0xFFE
  4495                           tosl	equ	0xFFD
  4496                           pclatu	equ	0xFFB
  4497                           pclath	equ	0xFFA
  4498                           tblptru	equ	0xFF8
  4499                           tblptrh	equ	0xFF7
  4500                           tblptrl	equ	0xFF6
  4501                           tablat	equ	0xFF5
  4502                           prodh	equ	0xFF4
  4503                           prodl	equ	0xFF3
  4504                           intcon	equ	0xFF2
  4505                           intcon2	equ	0xFF1
  4506                           intcon3	equ	0xFF0
  4507                           postinc0	equ	0xFEE
  4508                           fsr0h	equ	0xFEA
  4509                           fsr0l	equ	0xFE9
  4510                           wreg	equ	0xFE8
  4511                           postdec1	equ	0xFE5
  4512                           fsr1h	equ	0xFE2
  4513                           fsr1l	equ	0xFE1
  4514                           indf2	equ	0xFDF
  4515                           postinc2	equ	0xFDE
  4516                           fsr2h	equ	0xFDA
  4517                           fsr2l	equ	0xFD9
  4518                           status	equ	0xFD8
  4519                           
  4520 ;; *************** function _RecievingData *****************
  4521 ;; Defined at:
  4522 ;;		line 64 in file "DHT11Driver.c"
  4523 ;; Parameters:    Size  Location     Type
  4524 ;;		None
  4525 ;; Auto vars:     Size  Location     Type
  4526 ;;		None
  4527 ;; Return value:  Size  Location     Type
  4528 ;;                  1    wreg      void 
  4529 ;; Registers used:
  4530 ;;		wreg, fsr2l, fsr2h, status,2, status,0, prodl, prodh
  4531 ;; Tracked objects:
  4532 ;;		On entry : 0/0
  4533 ;;		On exit  : 0/0
  4534 ;;		Unchanged: 0/0
  4535 ;; Data sizes:     COMRAM   BANK0   BANK1   BANK2   BANK3   BANK4   BANK5   BANK6   BANK7
  4536 ;;      Params:         0       0       0       0       0       0       0       0       0
  4537 ;;      Locals:         0       0       0       0       0       0       0       0       0
  4538 ;;      Temps:          2       0       0       0       0       0       0       0       0
  4539 ;;      Totals:         2       0       0       0       0       0       0       0       0
  4540 ;;Total ram usage:        2 bytes
  4541 ;; Hardware stack levels used:    1
  4542 ;; This function calls:
  4543 ;;		Nothing
  4544 ;; This function is called by:
  4545 ;;		_HighISR
  4546 ;; This function uses a non-reentrant model
  4547 ;;
  4548                           
  4549                           	psect	text36
  4550  000F2A                     __ptext36:
  4551                           	opt stack 0
  4552  000F2A                     _RecievingData:
  4553                           	opt stack 24
  4554                           
  4555                           ;DHT11Driver.c: 66: times[bitcount]=CCPR1-lasttime;
  4556                           
  4557                           ;incstack = 0
  4558  000F2A  C0B8  F001         	movff	_lasttime,??_RecievingData
  4559  000F2E  C0B9  F002         	movff	_lasttime+1,??_RecievingData+1
  4560  000F32  1E01               	comf	??_RecievingData,f,c
  4561  000F34  1E02               	comf	??_RecievingData+1,f,c
  4562  000F36  4A01               	infsnz	??_RecievingData,f,c
  4563  000F38  2A02               	incf	??_RecievingData+1,f,c
  4564  000F3A  50BE               	movf	4030,w,c	;volatile
  4565  000F3C  2601               	addwf	??_RecievingData,f,c
  4566  000F3E  50BF               	movf	4031,w,c	;volatile
  4567  000F40  2202               	addwfc	??_RecievingData+1,f,c
  4568  000F42  502F               	movf	_bitcount,w,c
  4569  000F44  0D02               	mullw	2
  4570  000F46  0E60               	movlw	low _times
  4571  000F48  24F3               	addwf	prodl,w,c
  4572  000F4A  6ED9               	movwf	fsr2l,c
  4573  000F4C  0E00               	movlw	high _times
  4574  000F4E  20F4               	addwfc	prodh,w,c
  4575  000F50  6EDA               	movwf	fsr2h,c
  4576  000F52  C001  FFDE         	movff	??_RecievingData,postinc2
  4577  000F56  C002  FFDD         	movff	??_RecievingData+1,postdec2
  4578                           
  4579                           ;DHT11Driver.c: 67: lasttime=CCPR1;
  4580  000F5A  CFBE F0B8          	movff	4030,_lasttime	;volatile
  4581  000F5E  CFBF F0B9          	movff	4031,_lasttime+1	;volatile
  4582                           
  4583                           ;DHT11Driver.c: 68: bitcount++;
  4584  000F62  2A2F               	incf	_bitcount,f,c
  4585                           
  4586                           ;DHT11Driver.c: 91: if(bitcount==40){
  4587  000F64  0E28               	movlw	40
  4588  000F66  182F               	xorwf	_bitcount,w,c
  4589  000F68  A4D8               	btfss	status,2,c
  4590  000F6A  0012               	return	
  4591                           
  4592                           ;DHT11Driver.c: 94: T1CON--;
  4593  000F6C  06CD               	decf	4045,f,c	;volatile
  4594                           
  4595                           ;DHT11Driver.c: 95: CCP1IE=0;
  4596  000F6E  949D               	bcf	3997,2,c	;volatile
  4597                           
  4598                           ;DHT11Driver.c: 97: (TRISCbits.TRISC2 = 0);
  4599  000F70  9494               	bcf	3988,2,c	;volatile
  4600                           
  4601                           ;DHT11Driver.c: 99: (LATC2=1U);
  4602  000F72  848B               	bsf	3979,2,c	;volatile
  4603                           
  4604                           ;DHT11Driver.c: 100: bitcount=0;
  4605  000F74  0E00               	movlw	0
  4606  000F76  6E2F               	movwf	_bitcount,c
  4607                           
  4608                           ;DHT11Driver.c: 101: state = _Idle;
  4609  000F78  0E00               	movlw	0
  4610  000F7A  6E38               	movwf	_state,c
  4611  000F7C  0012               	return	
  4612  000F7E                     __end_of_RecievingData:
  4613                           	opt stack 0
  4614                           tosu	equ	0xFFF
  4615                           tosh	equ	0xFFE
  4616                           tosl	equ	0xFFD
  4617                           pclatu	equ	0xFFB
  4618                           pclath	equ	0xFFA
  4619                           tblptru	equ	0xFF8
  4620                           tblptrh	equ	0xFF7
  4621                           tblptrl	equ	0xFF6
  4622                           tablat	equ	0xFF5
  4623                           prodh	equ	0xFF4
  4624                           prodl	equ	0xFF3
  4625                           intcon	equ	0xFF2
  4626                           intcon2	equ	0xFF1
  4627                           intcon3	equ	0xFF0
  4628                           postinc0	equ	0xFEE
  4629                           fsr0h	equ	0xFEA
  4630                           fsr0l	equ	0xFE9
  4631                           wreg	equ	0xFE8
  4632                           postdec1	equ	0xFE5
  4633                           fsr1h	equ	0xFE2
  4634                           fsr1l	equ	0xFE1
  4635                           indf2	equ	0xFDF
  4636                           postinc2	equ	0xFDE
  4637                           postdec2	equ	0xFDD
  4638                           fsr2h	equ	0xFDA
  4639                           fsr2l	equ	0xFD9
  4640                           status	equ	0xFD8
  4641                           
  4642 ;; *************** function _DHTSignalResponse *****************
  4643 ;; Defined at:
  4644 ;;		line 52 in file "DHT11Driver.c"
  4645 ;; Parameters:    Size  Location     Type
  4646 ;;		None
  4647 ;; Auto vars:     Size  Location     Type
  4648 ;;		None
  4649 ;; Return value:  Size  Location     Type
  4650 ;;                  1    wreg      void 
  4651 ;; Registers used:
  4652 ;;		wreg, status,2, status,0
  4653 ;; Tracked objects:
  4654 ;;		On entry : 0/0
  4655 ;;		On exit  : 0/0
  4656 ;;		Unchanged: 0/0
  4657 ;; Data sizes:     COMRAM   BANK0   BANK1   BANK2   BANK3   BANK4   BANK5   BANK6   BANK7
  4658 ;;      Params:         0       0       0       0       0       0       0       0       0
  4659 ;;      Locals:         0       0       0       0       0       0       0       0       0
  4660 ;;      Temps:          0       0       0       0       0       0       0       0       0
  4661 ;;      Totals:         0       0       0       0       0       0       0       0       0
  4662 ;;Total ram usage:        0 bytes
  4663 ;; Hardware stack levels used:    1
  4664 ;; This function calls:
  4665 ;;		Nothing
  4666 ;; This function is called by:
  4667 ;;		_HighISR
  4668 ;; This function uses a non-reentrant model
  4669 ;;
  4670                           
  4671                           	psect	text37
  4672  0010CC                     __ptext37:
  4673                           	opt stack 0
  4674  0010CC                     _DHTSignalResponse:
  4675                           	opt stack 24
  4676                           
  4677                           ;DHT11Driver.c: 53: T1CON--;
  4678                           
  4679                           ;incstack = 0
  4680  0010CC  06CD               	decf	4045,f,c	;volatile
  4681                           
  4682                           ;DHT11Driver.c: 54: TMR1H=0;
  4683  0010CE  0E00               	movlw	0
  4684  0010D0  6ECF               	movwf	4047,c	;volatile
  4685                           
  4686                           ;DHT11Driver.c: 55: TMR1L=0;
  4687  0010D2  0E00               	movlw	0
  4688  0010D4  6ECE               	movwf	4046,c	;volatile
  4689                           
  4690                           ;DHT11Driver.c: 56: CCPR1=0;
  4691  0010D6  0E00               	movlw	0
  4692  0010D8  6EBF               	movwf	4031,c	;volatile
  4693  0010DA  0E00               	movlw	0
  4694  0010DC  6EBE               	movwf	4030,c	;volatile
  4695                           
  4696                           ;DHT11Driver.c: 57: T1CON++;
  4697  0010DE  2ACD               	incf	4045,f,c	;volatile
  4698                           
  4699                           ;DHT11Driver.c: 59: lasttime=CCPR1;
  4700  0010E0  CFBE F0B8          	movff	4030,_lasttime	;volatile
  4701  0010E4  CFBF F0B9          	movff	4031,_lasttime+1	;volatile
  4702                           
  4703                           ;DHT11Driver.c: 61: state=_RecievingData;
  4704  0010E8  0E04               	movlw	4
  4705  0010EA  6E38               	movwf	_state,c
  4706  0010EC  0012               	return		;funcret
  4707  0010EE                     __end_of_DHTSignalResponse:
  4708                           	opt stack 0
  4709                           tosu	equ	0xFFF
  4710                           tosh	equ	0xFFE
  4711                           tosl	equ	0xFFD
  4712                           pclatu	equ	0xFFB
  4713                           pclath	equ	0xFFA
  4714                           tblptru	equ	0xFF8
  4715                           tblptrh	equ	0xFF7
  4716                           tblptrl	equ	0xFF6
  4717                           tablat	equ	0xFF5
  4718                           prodh	equ	0xFF4
  4719                           prodl	equ	0xFF3
  4720                           intcon	equ	0xFF2
  4721                           intcon2	equ	0xFF1
  4722                           intcon3	equ	0xFF0
  4723                           postinc0	equ	0xFEE
  4724                           fsr0h	equ	0xFEA
  4725                           fsr0l	equ	0xFE9
  4726                           wreg	equ	0xFE8
  4727                           postdec1	equ	0xFE5
  4728                           fsr1h	equ	0xFE2
  4729                           fsr1l	equ	0xFE1
  4730                           indf2	equ	0xFDF
  4731                           postinc2	equ	0xFDE
  4732                           postdec2	equ	0xFDD
  4733                           fsr2h	equ	0xFDA
  4734                           fsr2l	equ	0xFD9
  4735                           status	equ	0xFD8
  4736                           
  4737 ;; *************** function _FirstStateRequest *****************
  4738 ;; Defined at:
  4739 ;;		line 22 in file "DHT11Driver.c"
  4740 ;; Parameters:    Size  Location     Type
  4741 ;;		None
  4742 ;; Auto vars:     Size  Location     Type
  4743 ;;		None
  4744 ;; Return value:  Size  Location     Type
  4745 ;;                  1    wreg      void 
  4746 ;; Registers used:
  4747 ;;		wreg, status,2, status,0
  4748 ;; Tracked objects:
  4749 ;;		On entry : 0/0
  4750 ;;		On exit  : 0/0
  4751 ;;		Unchanged: 0/0
  4752 ;; Data sizes:     COMRAM   BANK0   BANK1   BANK2   BANK3   BANK4   BANK5   BANK6   BANK7
  4753 ;;      Params:         0       0       0       0       0       0       0       0       0
  4754 ;;      Locals:         0       0       0       0       0       0       0       0       0
  4755 ;;      Temps:          0       0       0       0       0       0       0       0       0
  4756 ;;      Totals:         0       0       0       0       0       0       0       0       0
  4757 ;;Total ram usage:        0 bytes
  4758 ;; Hardware stack levels used:    1
  4759 ;; This function calls:
  4760 ;;		Nothing
  4761 ;; This function is called by:
  4762 ;;		_HighISR
  4763 ;; This function uses a non-reentrant model
  4764 ;;
  4765                           
  4766                           	psect	text38
  4767  000FC4                     __ptext38:
  4768                           	opt stack 0
  4769  000FC4                     _FirstStateRequest:
  4770                           	opt stack 24
  4771                           
  4772                           ;DHT11Driver.c: 24: CCP1IE=1U;
  4773                           
  4774                           ;incstack = 0
  4775  000FC4  849D               	bsf	3997,2,c	;volatile
  4776                           
  4777                           ;DHT11Driver.c: 27: CCP1CON=0x08;
  4778  000FC6  0E08               	movlw	8
  4779  000FC8  6EBD               	movwf	4029,c	;volatile
  4780                           
  4781                           ;DHT11Driver.c: 29: TMR1H=0;
  4782  000FCA  0E00               	movlw	0
  4783  000FCC  6ECF               	movwf	4047,c	;volatile
  4784                           
  4785                           ;DHT11Driver.c: 30: TMR1L=0;
  4786  000FCE  0E00               	movlw	0
  4787  000FD0  6ECE               	movwf	4046,c	;volatile
  4788                           
  4789                           ;DHT11Driver.c: 32: counts=TMR1+18000;
  4790  000FD2  0E50               	movlw	80
  4791  000FD4  24CE               	addwf	4046,w,c	;volatile
  4792  000FD6  0100               	movlb	0	; () banked
  4793  000FD8  6FB6               	movwf	_counts& (0+255),b
  4794  000FDA  0E46               	movlw	70
  4795  000FDC  20CF               	addwfc	4047,w,c	;volatile
  4796  000FDE  0100               	movlb	0	; () banked
  4797  000FE0  6FB7               	movwf	(_counts+1)& (0+255),b
  4798                           
  4799                           ; BSR set to: 0
  4800                           ;DHT11Driver.c: 33: T3CON=0b10100000;
  4801  000FE2  0EA0               	movlw	160
  4802  000FE4  6EB1               	movwf	4017,c	;volatile
  4803                           
  4804                           ; BSR set to: 0
  4805                           ;DHT11Driver.c: 34: T1CON=0b11001000;
  4806  000FE6  0EC8               	movlw	200
  4807  000FE8  6ECD               	movwf	4045,c	;volatile
  4808                           
  4809                           ; BSR set to: 0
  4810                           ;DHT11Driver.c: 36: (TRISCbits.TRISC2 = 0);
  4811  000FEA  9494               	bcf	3988,2,c	;volatile
  4812                           
  4813                           ; BSR set to: 0
  4814                           ;DHT11Driver.c: 39: CCPR1H=counts>>8;
  4815  000FEC  0100               	movlb	0	; () banked
  4816  000FEE  51B7               	movf	(_counts+1)& (0+255),w,b
  4817  000FF0  6EBF               	movwf	4031,c	;volatile
  4818                           
  4819                           ; BSR set to: 0
  4820                           ;DHT11Driver.c: 40: CCPR1L=(u8)counts;
  4821  000FF2  C0B6  FFBE         	movff	_counts,4030	;volatile
  4822                           
  4823                           ; BSR set to: 0
  4824                           ;DHT11Driver.c: 42: T1CON++;
  4825  000FF6  2ACD               	incf	4045,f,c	;volatile
  4826                           
  4827                           ; BSR set to: 0
  4828                           ;DHT11Driver.c: 43: state = _SecondStateRequest;
  4829  000FF8  0E02               	movlw	2
  4830  000FFA  6E38               	movwf	_state,c
  4831                           
  4832                           ; BSR set to: 0
  4833  000FFC  0012               	return		;funcret
  4834  000FFE                     __end_of_FirstStateRequest:
  4835                           	opt stack 0
  4836                           tosu	equ	0xFFF
  4837                           tosh	equ	0xFFE
  4838                           tosl	equ	0xFFD
  4839                           pclatu	equ	0xFFB
  4840                           pclath	equ	0xFFA
  4841                           tblptru	equ	0xFF8
  4842                           tblptrh	equ	0xFF7
  4843                           tblptrl	equ	0xFF6
  4844                           tablat	equ	0xFF5
  4845                           prodh	equ	0xFF4
  4846                           prodl	equ	0xFF3
  4847                           intcon	equ	0xFF2
  4848                           intcon2	equ	0xFF1
  4849                           intcon3	equ	0xFF0
  4850                           postinc0	equ	0xFEE
  4851                           fsr0h	equ	0xFEA
  4852                           fsr0l	equ	0xFE9
  4853                           wreg	equ	0xFE8
  4854                           postdec1	equ	0xFE5
  4855                           fsr1h	equ	0xFE2
  4856                           fsr1l	equ	0xFE1
  4857                           indf2	equ	0xFDF
  4858                           postinc2	equ	0xFDE
  4859                           postdec2	equ	0xFDD
  4860                           fsr2h	equ	0xFDA
  4861                           fsr2l	equ	0xFD9
  4862                           status	equ	0xFD8
  4863                           
  4864 ;; *************** function _Idle *****************
  4865 ;; Defined at:
  4866 ;;		line 19 in file "DHT11Driver.c"
  4867 ;; Parameters:    Size  Location     Type
  4868 ;;		None
  4869 ;; Auto vars:     Size  Location     Type
  4870 ;;		None
  4871 ;; Return value:  Size  Location     Type
  4872 ;;                  1    wreg      void 
  4873 ;; Registers used:
  4874 ;;		None
  4875 ;; Tracked objects:
  4876 ;;		On entry : 0/0
  4877 ;;		On exit  : 0/0
  4878 ;;		Unchanged: 0/0
  4879 ;; Data sizes:     COMRAM   BANK0   BANK1   BANK2   BANK3   BANK4   BANK5   BANK6   BANK7
  4880 ;;      Params:         0       0       0       0       0       0       0       0       0
  4881 ;;      Locals:         0       0       0       0       0       0       0       0       0
  4882 ;;      Temps:          0       0       0       0       0       0       0       0       0
  4883 ;;      Totals:         0       0       0       0       0       0       0       0       0
  4884 ;;Total ram usage:        0 bytes
  4885 ;; Hardware stack levels used:    1
  4886 ;; This function calls:
  4887 ;;		Nothing
  4888 ;; This function is called by:
  4889 ;;		_HighISR
  4890 ;; This function uses a non-reentrant model
  4891 ;;
  4892                           
  4893                           	psect	text39
  4894  001230                     __ptext39:
  4895                           	opt stack 0
  4896  001230                     _Idle:
  4897                           	opt stack 24
  4898                           
  4899                           ; BSR set to: 0
  4900                           ;incstack = 0
  4901  001230  0012               	return		;funcret
  4902  001232                     __end_of_Idle:
  4903                           	opt stack 0
  4904                           tosu	equ	0xFFF
  4905                           tosh	equ	0xFFE
  4906                           tosl	equ	0xFFD
  4907                           pclatu	equ	0xFFB
  4908                           pclath	equ	0xFFA
  4909                           tblptru	equ	0xFF8
  4910                           tblptrh	equ	0xFF7
  4911                           tblptrl	equ	0xFF6
  4912                           tablat	equ	0xFF5
  4913                           prodh	equ	0xFF4
  4914                           prodl	equ	0xFF3
  4915                           intcon	equ	0xFF2
  4916                           intcon2	equ	0xFF1
  4917                           intcon3	equ	0xFF0
  4918                           postinc0	equ	0xFEE
  4919                           fsr0h	equ	0xFEA
  4920                           fsr0l	equ	0xFE9
  4921                           wreg	equ	0xFE8
  4922                           postdec1	equ	0xFE5
  4923                           fsr1h	equ	0xFE2
  4924                           fsr1l	equ	0xFE1
  4925                           indf2	equ	0xFDF
  4926                           postinc2	equ	0xFDE
  4927                           postdec2	equ	0xFDD
  4928                           fsr2h	equ	0xFDA
  4929                           fsr2l	equ	0xFD9
  4930                           status	equ	0xFD8
  4931                           
  4932 ;; *************** function _SecondStateRequest *****************
  4933 ;; Defined at:
  4934 ;;		line 45 in file "DHT11Driver.c"
  4935 ;; Parameters:    Size  Location     Type
  4936 ;;		None
  4937 ;; Auto vars:     Size  Location     Type
  4938 ;;		None
  4939 ;; Return value:  Size  Location     Type
  4940 ;;                  1    wreg      void 
  4941 ;; Registers used:
  4942 ;;		wreg, status,2
  4943 ;; Tracked objects:
  4944 ;;		On entry : 0/0
  4945 ;;		On exit  : 0/0
  4946 ;;		Unchanged: 0/0
  4947 ;; Data sizes:     COMRAM   BANK0   BANK1   BANK2   BANK3   BANK4   BANK5   BANK6   BANK7
  4948 ;;      Params:         0       0       0       0       0       0       0       0       0
  4949 ;;      Locals:         0       0       0       0       0       0       0       0       0
  4950 ;;      Temps:          0       0       0       0       0       0       0       0       0
  4951 ;;      Totals:         0       0       0       0       0       0       0       0       0
  4952 ;;Total ram usage:        0 bytes
  4953 ;; Hardware stack levels used:    1
  4954 ;; This function calls:
  4955 ;;		Nothing
  4956 ;; This function is called by:
  4957 ;;		_HighISR
  4958 ;; This function uses a non-reentrant model
  4959 ;;
  4960                           
  4961                           	psect	text40
  4962  0011B8                     __ptext40:
  4963                           	opt stack 0
  4964  0011B8                     _SecondStateRequest:
  4965                           	opt stack 24
  4966                           
  4967                           ;DHT11Driver.c: 46: CCP1CON=0x04;
  4968                           
  4969                           ;incstack = 0
  4970  0011B8  0E04               	movlw	4
  4971  0011BA  6EBD               	movwf	4029,c	;volatile
  4972                           
  4973                           ;DHT11Driver.c: 48: (TRISCbits.TRISC2 = 1);
  4974  0011BC  8494               	bsf	3988,2,c	;volatile
  4975                           
  4976                           ;DHT11Driver.c: 49: state = _DHTSignalResponse;
  4977  0011BE  0E03               	movlw	3
  4978  0011C0  6E38               	movwf	_state,c
  4979  0011C2  0012               	return		;funcret
  4980  0011C4                     __end_of_SecondStateRequest:
  4981                           	opt stack 0
  4982                           tosu	equ	0xFFF
  4983                           tosh	equ	0xFFE
  4984                           tosl	equ	0xFFD
  4985                           pclatu	equ	0xFFB
  4986                           pclath	equ	0xFFA
  4987                           tblptru	equ	0xFF8
  4988                           tblptrh	equ	0xFF7
  4989                           tblptrl	equ	0xFF6
  4990                           tablat	equ	0xFF5
  4991                           prodh	equ	0xFF4
  4992                           prodl	equ	0xFF3
  4993                           intcon	equ	0xFF2
  4994                           intcon2	equ	0xFF1
  4995                           intcon3	equ	0xFF0
  4996                           postinc0	equ	0xFEE
  4997                           fsr0h	equ	0xFEA
  4998                           fsr0l	equ	0xFE9
  4999                           wreg	equ	0xFE8
  5000                           postdec1	equ	0xFE5
  5001                           fsr1h	equ	0xFE2
  5002                           fsr1l	equ	0xFE1
  5003                           indf2	equ	0xFDF
  5004                           postinc2	equ	0xFDE
  5005                           postdec2	equ	0xFDD
  5006                           fsr2h	equ	0xFDA
  5007                           fsr2l	equ	0xFD9
  5008                           status	equ	0xFD8
  5009                           tosu	equ	0xFFF
  5010                           tosh	equ	0xFFE
  5011                           tosl	equ	0xFFD
  5012                           pclatu	equ	0xFFB
  5013                           pclath	equ	0xFFA
  5014                           tblptru	equ	0xFF8
  5015                           tblptrh	equ	0xFF7
  5016                           tblptrl	equ	0xFF6
  5017                           tablat	equ	0xFF5
  5018                           prodh	equ	0xFF4
  5019                           prodl	equ	0xFF3
  5020                           intcon	equ	0xFF2
  5021                           intcon2	equ	0xFF1
  5022                           intcon3	equ	0xFF0
  5023                           postinc0	equ	0xFEE
  5024                           fsr0h	equ	0xFEA
  5025                           fsr0l	equ	0xFE9
  5026                           wreg	equ	0xFE8
  5027                           postdec1	equ	0xFE5
  5028                           fsr1h	equ	0xFE2
  5029                           fsr1l	equ	0xFE1
  5030                           indf2	equ	0xFDF
  5031                           postinc2	equ	0xFDE
  5032                           postdec2	equ	0xFDD
  5033                           fsr2h	equ	0xFDA
  5034                           fsr2l	equ	0xFD9
  5035                           status	equ	0xFD8
  5036                           
  5037                           	psect	text41
  5038  000000                     __ptext41:
  5039                           	opt stack 0
  5040                           tosu	equ	0xFFF
  5041                           tosh	equ	0xFFE
  5042                           tosl	equ	0xFFD
  5043                           pclatu	equ	0xFFB
  5044                           pclath	equ	0xFFA
  5045                           tblptru	equ	0xFF8
  5046                           tblptrh	equ	0xFF7
  5047                           tblptrl	equ	0xFF6
  5048                           tablat	equ	0xFF5
  5049                           prodh	equ	0xFF4
  5050                           prodl	equ	0xFF3
  5051                           intcon	equ	0xFF2
  5052                           intcon2	equ	0xFF1
  5053                           intcon3	equ	0xFF0
  5054                           postinc0	equ	0xFEE
  5055                           fsr0h	equ	0xFEA
  5056                           fsr0l	equ	0xFE9
  5057                           wreg	equ	0xFE8
  5058                           postdec1	equ	0xFE5
  5059                           fsr1h	equ	0xFE2
  5060                           fsr1l	equ	0xFE1
  5061                           indf2	equ	0xFDF
  5062                           postinc2	equ	0xFDE
  5063                           postdec2	equ	0xFDD
  5064                           fsr2h	equ	0xFDA
  5065                           fsr2l	equ	0xFD9
  5066                           status	equ	0xFD8
  5067                           
  5068                           	psect	rparam
  5069  0000                     tosu	equ	0xFFF
  5070                           tosh	equ	0xFFE
  5071                           tosl	equ	0xFFD
  5072                           pclatu	equ	0xFFB
  5073                           pclath	equ	0xFFA
  5074                           tblptru	equ	0xFF8
  5075                           tblptrh	equ	0xFF7
  5076                           tblptrl	equ	0xFF6
  5077                           tablat	equ	0xFF5
  5078                           prodh	equ	0xFF4
  5079                           prodl	equ	0xFF3
  5080                           intcon	equ	0xFF2
  5081                           intcon2	equ	0xFF1
  5082                           intcon3	equ	0xFF0
  5083                           postinc0	equ	0xFEE
  5084                           fsr0h	equ	0xFEA
  5085                           fsr0l	equ	0xFE9
  5086                           wreg	equ	0xFE8
  5087                           postdec1	equ	0xFE5
  5088                           fsr1h	equ	0xFE2
  5089                           fsr1l	equ	0xFE1
  5090                           indf2	equ	0xFDF
  5091                           postinc2	equ	0xFDE
  5092                           postdec2	equ	0xFDD
  5093                           fsr2h	equ	0xFDA
  5094                           fsr2l	equ	0xFD9
  5095                           status	equ	0xFD8
  5096                           
  5097                           	psect	temp
  5098  000045                     btemp:
  5099                           	opt stack 0
  5100  000045                     	ds	1
  5101  0000                     int$flags	set	btemp
  5102                           tosu	equ	0xFFF
  5103                           tosh	equ	0xFFE
  5104                           tosl	equ	0xFFD
  5105                           pclatu	equ	0xFFB
  5106                           pclath	equ	0xFFA
  5107                           tblptru	equ	0xFF8
  5108                           tblptrh	equ	0xFF7
  5109                           tblptrl	equ	0xFF6
  5110                           tablat	equ	0xFF5
  5111                           prodh	equ	0xFF4
  5112                           prodl	equ	0xFF3
  5113                           intcon	equ	0xFF2
  5114                           intcon2	equ	0xFF1
  5115                           intcon3	equ	0xFF0
  5116                           postinc0	equ	0xFEE
  5117                           fsr0h	equ	0xFEA
  5118                           fsr0l	equ	0xFE9
  5119                           wreg	equ	0xFE8
  5120                           postdec1	equ	0xFE5
  5121                           fsr1h	equ	0xFE2
  5122                           fsr1l	equ	0xFE1
  5123                           indf2	equ	0xFDF
  5124                           postinc2	equ	0xFDE
  5125                           postdec2	equ	0xFDD
  5126                           fsr2h	equ	0xFDA
  5127                           fsr2l	equ	0xFD9
  5128                           status	equ	0xFD8


Data Sizes:
    Strings     0
    Constant    2
    Data        24
    BSS         132
    Persistent  0
    Stack       0

Auto Spaces:
    Space          Size  Autos    Used
    COMRAM           94     34      68
    BANK0           160     26     150
    BANK1           256      0       0
    BANK2           256      0       0
    BANK3           256      0       0
    BANK4           256      0       0
    BANK5           256      0       0
    BANK6           256      0       0
    BANK7           256      0       0

Pointer List with Targets:

    ReadFrame@pointer	PTR unsigned char  size(2) Largest target is 15
		 -> RecievedData(BANK0[15]), 

    DHT_StateMachine	PTR FTN()void [5] size(2) Largest target is 1
		 -> RecievingData(), DHTSignalResponse(), SecondStateRequest(), FirstStateRequest(), 
		 -> Idle(), 


Critical Paths under _main in COMRAM

    None.

Critical Paths under _HighISR in COMRAM

    i2_TurnOnLights->i2_SetPWM
    i2_SetPWM->i2_SetDutyCycle
    i2_SetDutyCycle->i2___awdiv
    i2___awdiv->i2___wmul

Critical Paths under _main in BANK0

    _main->_ReadFrame
    _TurnOnLights->_SetPWM
    _SetPWM->_SetDutyCycle
    _SetDutyCycle->___awdiv
    ___awdiv->___wmul

Critical Paths under _HighISR in BANK0

    None.

Critical Paths under _main in BANK1

    None.

Critical Paths under _HighISR in BANK1

    None.

Critical Paths under _main in BANK2

    None.

Critical Paths under _HighISR in BANK2

    None.

Critical Paths under _main in BANK3

    None.

Critical Paths under _HighISR in BANK3

    None.

Critical Paths under _main in BANK4

    None.

Critical Paths under _HighISR in BANK4

    None.

Critical Paths under _main in BANK5

    None.

Critical Paths under _HighISR in BANK5

    None.

Critical Paths under _main in BANK6

    None.

Critical Paths under _HighISR in BANK6

    None.

Critical Paths under _main in BANK7

    None.

Critical Paths under _HighISR in BANK7

    None.

Call Graph Tables:

 ---------------------------------------------------------------------------------
 (Depth) Function   	        Calls       Base Space   Used Autos Params    Refs
 ---------------------------------------------------------------------------------
 (0) _main                                                 2     2      0    4958
                                             24 BANK0      2     2      0
                    _InitDHT11Driver
                     _Interrupt_Init
                          _ReadFrame
                         _SerialInit
                          _TMR0_INIT
                    _TMR0_WRITE_HIGH
                     _TMR0_WRITE_LOW
                      _TurnOffLights
                       _TurnOnLights
 ---------------------------------------------------------------------------------
 (1) _TurnOffLights                                        0     0      0       0
                            _StopPWM
 ---------------------------------------------------------------------------------
 (2) _StopPWM                                              0     0      0       0
 ---------------------------------------------------------------------------------
 (1) _TMR0_WRITE_LOW                                       1     1      0      31
                                              0 BANK0      1     1      0
 ---------------------------------------------------------------------------------
 (1) _TMR0_WRITE_HIGH                                      1     1      0      31
                                              0 BANK0      1     1      0
 ---------------------------------------------------------------------------------
 (1) _TMR0_INIT                                            2     2      0      92
                                              0 BANK0      2     2      0
 ---------------------------------------------------------------------------------
 (1) _SerialInit                                           0     0      0       0
 ---------------------------------------------------------------------------------
 (1) _ReadFrame                                            6     4      2    3205
                                             18 BANK0      6     4      2
                       _TurnOnLights
                             ___wmul
 ---------------------------------------------------------------------------------
 (1) _TurnOnLights                                         0     0      0    1599
                             _SetPWM
                           _StartPWM
 ---------------------------------------------------------------------------------
 (2) _StartPWM                                             0     0      0       0
 ---------------------------------------------------------------------------------
 (2) _SetPWM                                               1     1      0    1599
                                             17 BANK0      1     1      0
                       _SetDutyCycle
                          _SetPeriod
 ---------------------------------------------------------------------------------
 (3) _SetPeriod                                            0     0      0       0
 ---------------------------------------------------------------------------------
 (3) _SetDutyCycle                                         3     3      0    1568
                                             14 BANK0      3     3      0
                            ___awdiv
                             ___wmul
 ---------------------------------------------------------------------------------
 (4) ___wmul                                               6     2      4     938
                                              0 BANK0      6     2      4
 ---------------------------------------------------------------------------------
 (4) ___awdiv                                              8     4      4     599
                                              6 BANK0      8     4      4
                             ___wmul (ARG)
 ---------------------------------------------------------------------------------
 (1) _Interrupt_Init                                       0     0      0       0
                        _INIT_INTCON
                       _INIT_INTCON2
                       _INIT_INTCON3
                          _INIT_IPR1
                          _INIT_IPR2
                          _INIT_PIE1
                          _INIT_PIE2
                          _INIT_RCON
 ---------------------------------------------------------------------------------
 (2) _INIT_RCON                                            0     0      0       0
 ---------------------------------------------------------------------------------
 (2) _INIT_PIE2                                            0     0      0       0
 ---------------------------------------------------------------------------------
 (2) _INIT_PIE1                                            0     0      0       0
 ---------------------------------------------------------------------------------
 (2) _INIT_IPR2                                            0     0      0       0
 ---------------------------------------------------------------------------------
 (2) _INIT_IPR1                                            0     0      0       0
 ---------------------------------------------------------------------------------
 (2) _INIT_INTCON3                                         0     0      0       0
 ---------------------------------------------------------------------------------
 (2) _INIT_INTCON2                                         0     0      0       0
 ---------------------------------------------------------------------------------
 (2) _INIT_INTCON                                          0     0      0       0
 ---------------------------------------------------------------------------------
 (1) _InitDHT11Driver                                      0     0      0       0
                    _ConfigureTimer1
 ---------------------------------------------------------------------------------
 (2) _ConfigureTimer1                                      0     0      0       0
 ---------------------------------------------------------------------------------
 Estimated maximum stack depth 4
 ---------------------------------------------------------------------------------
 (Depth) Function   	        Calls       Base Space   Used Autos Params    Refs
 ---------------------------------------------------------------------------------
 (6) _HighISR                                             16    16      0     649
                                             18 COMRAM    16    16      0
                  _DHTSignalResponse *
                  _FirstStateRequest *
                               _Idle *
                      _RecievingData *
                 _SecondStateRequest *
                  i2_TMR0_WRITE_HIGH
                   i2_TMR0_WRITE_LOW
                     i2_TurnOnLights
 ---------------------------------------------------------------------------------
 (7) i2_TurnOnLights                                       0     0      0     605
                           i2_SetPWM
                         i2_StartPWM
 ---------------------------------------------------------------------------------
 (8) i2_StartPWM                                           0     0      0       0
 ---------------------------------------------------------------------------------
 (8) i2_SetPWM                                             1     1      0     605
                                             17 COMRAM     1     1      0
                     i2_SetDutyCycle
                        i2_SetPeriod
 ---------------------------------------------------------------------------------
 (9) i2_SetPeriod                                          0     0      0       0
 ---------------------------------------------------------------------------------
 (9) i2_SetDutyCycle                                       3     3      0     583
                                             14 COMRAM     3     3      0
                          i2___awdiv
                           i2___wmul
 ---------------------------------------------------------------------------------
 (10) i2___wmul                                            6     2      4     209
                                              0 COMRAM     6     2      4
 ---------------------------------------------------------------------------------
 (10) i2___awdiv                                           8     4      4     352
                                              6 COMRAM     8     4      4
                           i2___wmul (ARG)
 ---------------------------------------------------------------------------------
 (7) i2_TMR0_WRITE_LOW                                     1     1      0      22
                                              0 COMRAM     1     1      0
 ---------------------------------------------------------------------------------
 (7) i2_TMR0_WRITE_HIGH                                    1     1      0      22
                                              0 COMRAM     1     1      0
 ---------------------------------------------------------------------------------
 (7) _SecondStateRequest                                   0     0      0       0
 ---------------------------------------------------------------------------------
 (7) _RecievingData                                        2     2      0       0
                                              0 COMRAM     2     2      0
 ---------------------------------------------------------------------------------
 (7) _Idle                                                 0     0      0       0
 ---------------------------------------------------------------------------------
 (7) _FirstStateRequest                                    0     0      0       0
 ---------------------------------------------------------------------------------
 (7) _DHTSignalResponse                                    0     0      0       0
 ---------------------------------------------------------------------------------
 Estimated maximum stack depth 10
 ---------------------------------------------------------------------------------

 Call Graph Graphs:

 _main (ROOT)
   _InitDHT11Driver
     _ConfigureTimer1
   _Interrupt_Init
     _INIT_INTCON
     _INIT_INTCON2
     _INIT_INTCON3
     _INIT_IPR1
     _INIT_IPR2
     _INIT_PIE1
     _INIT_PIE2
     _INIT_RCON
   _ReadFrame
     _TurnOnLights
       _SetPWM
         _SetDutyCycle
           ___awdiv
             ___wmul (ARG)
           ___wmul
         _SetPeriod
       _StartPWM
     ___wmul
   _SerialInit
   _TMR0_INIT
   _TMR0_WRITE_HIGH
   _TMR0_WRITE_LOW
   _TurnOffLights
     _StopPWM
   _TurnOnLights
     _SetPWM
       _SetDutyCycle
         ___awdiv
           ___wmul (ARG)
         ___wmul
       _SetPeriod
     _StartPWM

 _HighISR (ROOT)
   _DHTSignalResponse *
   _FirstStateRequest *
   _Idle *
   _RecievingData *
   _SecondStateRequest *
   i2_TMR0_WRITE_HIGH *
   i2_TMR0_WRITE_LOW *
   i2_TurnOnLights *
     i2_SetPWM
       i2_SetDutyCycle
         i2___awdiv
           i2___wmul (ARG)
         i2___wmul
       i2_SetPeriod
     i2_StartPWM

 Address spaces:
Name               Size   Autos  Total    Cost      Usage
BIGRAM             7FF      0       0      21        0.0%
EEDATA             100      0       0       0        0.0%
BITBANK7           100      0       0      18        0.0%
BANK7              100      0       0      19        0.0%
BITBANK6           100      0       0      16        0.0%
BANK6              100      0       0      17        0.0%
BITBANK5           100      0       0      14        0.0%
BANK5              100      0       0      15        0.0%
BITBANK4           100      0       0      12        0.0%
BANK4              100      0       0      13        0.0%
BITBANK3           100      0       0      10        0.0%
BANK3              100      0       0      11        0.0%
BITBANK2           100      0       0       8        0.0%
BANK2              100      0       0       9        0.0%
BITBANK1           100      0       0       6        0.0%
BANK1              100      0       0       7        0.0%
BITBANK0            A0      0       0       4        0.0%
BANK0               A0     1A      96       5       93.8%
BITCOMRAM           5E      0       2       0        2.1%
COMRAM              5E     22      44       1       72.3%
BITSFR               0      0       0      40        0.0%
SFR                  0      0       0      40        0.0%
STACK                0      0       0       2        0.0%
NULL                 0      0       0       0        0.0%
ABS                  0      0      DA      20        0.0%
DATA                 0      0      DA       3        0.0%
CODE                 0      0       0       0        0.0%


Microchip Technology PIC18 Macro Assembler V1.36 build -262312587 
Symbol Table                                                                                   Thu May 05 19:30:28 2016

           ??_Interrupt_Init 00CD                   i2_StartPWM 1208                  __CFG_CP0$ON 000000  
                __CFG_CP1$ON 000000                  __CFG_CP2$ON 000000                  __CFG_CP3$ON 000000  
                __CFG_CPB$ON 000000                  __CFG_CPD$ON 000000                 ___awdiv@sign 00D8  
        ___wmul@multiplicand 00CF                  __CFG_BORV$3 000000        __size_of_TurnOnLights 0012  
                __CFG_LVP$ON 000000                          l151 0D42                          l393 0FBE  
              _MinLightValue 0040                          _PR2 000FCB                          _RX9 007D5E  
                        _LSb 00B0                          _TX9 007D66                          _PWM 01D3  
                        _MSb 00B4     TMR0_WRITE_HIGH@valorHigh 00CD                          _fan 0042  
                        prod 000FF3       __size_of_TurnOffLights 000C                          tosl 000FFD  
                        wreg 000FE8                 _f_Send2Bytes 01D5              ?i2_SetDutyCycle 0001  
               __CFG_WDT$OFF 000000                         l2203 0CBA                         l2401 0A2C  
                       l2171 0C22                         l2183 0C56                         l2273 0FAE  
                       l2185 0C62                         l2177 0C38                         l2353 0884  
                       l2361 08AA                         l2345 085A                         l2441 0D22  
                       l2195 0C98                         l2187 0C68                         l2355 0892  
                       l2451 0D48                         l2269 0F9E                         l2357 08A2  
                       l2199 0CA6                         l2375 09B8                         l2387 09F8  
                       l2395 0A20                         l2397 0A24                         _ADIF 007CF6  
                       _BRGH 007D62                         _T0IF 007F92                         _CREN 007D5C  
                       _CSRC 007D67                 ?_INIT_INTCON 0001                         _RCIE 007CED  
                       _RCIF 007CF5                         _TMR0 000FD6                         _TMR1 000FCE  
                       _SPEN 007D5F                         _SREN 007D5D                         _TXEN 007D65  
                       _SYNC 007D64                         _Idle 1230                 __CFG_WRT0$ON 000000  
               __CFG_WRT1$ON 000000                 __CFG_WRT2$ON 000000                 __CFG_WRT3$ON 000000  
              __CFG_EBTR0$ON 000000                __CFG_EBTR1$ON 000000                __CFG_EBTR2$ON 000000  
              __CFG_EBTR3$ON 000000                 __CFG_WRTB$ON 000000                 __CFG_WRTC$ON 000000  
              __CFG_BOR$SOFT 000000                 __CFG_WRTD$ON 000000                __CFG_EBTRB$ON 000000  
                       _main 0CC4                         _mask 0034                         _time 0039  
                       fsr0h 000FEA    __size_ofi2_TMR0_WRITE_LOW 0008                         fsr1h 000FE2  
                       fsr0l 000FE9                         fsr2h 000FDA                         fsr1l 000FE1  
                       indf2 000FDF                         fsr2l 000FD9           _IntegerTemperature 002A  
                       btemp 0045                         pclat 000FFA                         prodh 000FF4  
                       prodl 000FF3                         start 0016                __CFG_IESO$OFF 000000  
         __size_of_INIT_IPR1 0010           __size_of_INIT_IPR2 000E           __size_of_INIT_PIE1 0010  
         __size_of_INIT_PIE2 000E              __end_of_HighISR 0C06           __size_of_INIT_RCON 0004  
               _TurnOnLights 1122                 ___param_bank 000010                 _totaldaytime 003E  
    __size_ofi2_TurnOnLights 0012                __CFG_PLLDIV$1 000000                        ?_Idle 0001  
           ?_TMR0_WRITE_HIGH 0001              __end_of_StopPWM 11CE                        _ADDEN 007D5B  
                      ?_main 0001              __end_of___awdiv 0CC4                        _ADRES 000FC3  
                      _CCPR1 000FBE                        _BRG16 007DC3                        _T0CON 000FD5  
            ___awdiv@divisor 00D5                        _T1CON 000FCD                        _T2CON 000FCA  
                      _LATA3 007C4B                        _LATB3 007C53                        _LATC2 007C5A  
                      _T3CON 000FB1                ?_INIT_INTCON2 0001                ?_INIT_INTCON3 0001  
                      _T1RUN 007E6E                        i2l135 0B2C                        i2l145 0BCA  
                      i2l138 0B2A              ___awdiv@counter 00D7                        _RCREG 000FAE  
                      _SENDB 007D63                        _TMR0H 000FD7                        _TMR1H 000FCF  
                      _TMR0L 000FD6                        _TMR1L 000FCE                        _SPBRG 000FAF  
              __CFG_USBDIV$1 000000                        _TXREG 000FAD                __CFG_PWRT$OFF 000000  
         __size_of_TMR0_INIT 0028               __CFG_FCMEN$OFF 000000                        _frame 0033  
                      _light 0043             __end_ofi2_SetPWM 1122                        _times 0060  
                      _state 0038               __pbitbssCOMRAM 01D0                        pclath 000FFA  
                      tablat 000FF5             __end_ofi2___wmul 10AA                        status 000FD8  
         __size_ofi2___awdiv 0084                _TurnOffLights 11A0              _ConfigureTimer1 0F7E  
             __CFG_MCLRE$OFF 000000                 __end_of_Idle 1232              __initialization 0E58  
                 _LightValue 00B2     __size_of_InitDHT11Driver 000A                 __end_of_main 0D60  
                ?i2_StartPWM 0001              SetPWM@dutycycle 00DE      i2SetDutyCycle@dutycycle 0011  
                     ??_Idle 0001                       ??_main 00E5               ??_INIT_INTCON2 00CD  
             ??_INIT_INTCON3 00CD                __activetblptr 000002            __end_of_INIT_IPR1 1166  
          __end_of_INIT_IPR2 1192            __end_of_INIT_PIE1 1156            __end_of_INIT_PIE2 1184  
          __end_of_INIT_RCON 1230              __CFG_CCP2MX$OFF 000000             __end_of_StartPWM 1208  
                     _ADCON0 000FC2                       _ADCON1 000FC1                       _CCP1IE 007CEA  
                     _CCP1IF 007CF2                       _CCPR1H 000FBF                       _CCPR1L 000FBE  
                     _CCPR2L 000FBB             ___awdiv@dividend 00D3  __size_of_SecondStateRequest 000C  
                     _INT2IF 007F81                       i2l2103 0B9C                       i2l2027 0A86  
                     i2l2035 0A90                       i2l2053 0ACE                       i2l2063 0AEE  
                     i2l2049 0ABE                       i2l1703 0D74                       i2l2095 0B8C  
                     i2l1715 0D9A                       i2l1731 0DCC                       i2l1717 0DA2  
                     i2l1709 0D84                       i2l1735 0DDA                       i2l1727 0DC2  
                     i2l1719 0DA6                       _OSCCON 000FD3                    ??_HighISR 0013  
                     _TMR0IF 007F92                       _TMR1CS 007E69                       _TMR0ON 007EAF  
                     _TMR1ON 007E68           __size_of_ReadFrame 0240               ?_TurnOffLights 0001  
                     __SPBRG 0802                   _SerialInit 105C                       _Door_f 01D0  
                     _SetPWM 10EE               __CFG_XINST$OFF 000000       __size_of_RecievingData 0054  
            SerialCOM@_SPBRG 0801            __end_of_TMR0_INIT 105C                    ??_StopPWM 00CD  
                     ___wmul 0FFE                    ??___awdiv 00D7               __CFG_STVREN$ON 000000  
         __size_of_SetPeriod 0006               _actualhumidity 002D                       _counts 00B6  
                     clear_0 0E5E                       clear_1 0E6E             ___awdiv@quotient 00D9  
    __size_of_TMR0_WRITE_LOW 000A               i2___awdiv@sign 000C                 __pdataCOMRAM 003C  
                 _f_SSPReady 01D4            __end_ofi2___awdiv 0DE4                 __mediumconst 0000  
                     tblptrh 000FF7                       tblptrl 000FF6                       tblptru 000FF8  
              ?_SetDutyCycle 0001          __size_ofi2_StartPWM 0008      __end_of_ConfigureTimer1 0FC4  
                 __accesstop 0060      __end_of__initialization 0EB4              __CFG_PBADEN$OFF 000000  
           i2_TMR0_WRITE_LOW 1210         __size_of_INIT_INTCON 000C                 ?i2_SetPeriod 0001  
              ___rparam_used 000001                   _f_SendByte 01D6               __pcstackCOMRAM 0001  
               _f_frameready 0032                 __pidataBANK0 1166               i2_TurnOnLights 1134  
                  ?i2_SetPWM 0001            ??_InitDHT11Driver 00CD            __end_of_ReadFrame 0A44  
                  ?i2___wmul 0001             ??i2_SetDutyCycle 000F                _RecievingData 0F2A  
             ??_SetDutyCycle 00DB            __end_of_SetPeriod 1226                   __pbssBANK0 0060  
    __end_ofSerialCOM@_SPBRG 0802              ??_TurnOffLights 00CD             ReadFrame@pointer 00DF  
       __end_of_INIT_INTCON2 11A0         __end_of_INIT_INTCON3 11EC              _DecimalHumidity 0027  
                 _actualtime 0025                  ?_SerialInit 0001                      ?_SetPWM 0001  
     __end_ofi2_TurnOnLights 1146                      ?___wmul 00CD                    ?_StartPWM 0001  
                    _CCP1CON 000FBD                      _CCP2CON 000FBA                   ??i2_SetPWM 0012  
          _FirstStateRequest 0FC4                   ??i2___wmul 0005                      _T1OSCEN 007E6B  
                    _INTEDG2 007F8C               ?_RecievingData 0001           ?_FirstStateRequest 0001  
        ??_FirstStateRequest 0001              __CFG_VREGEN$OFF 000000             ?_ConfigureTimer1 0001  
                    _HighISR 0008                      _Light_f 01D1                      _Night_f 01D2  
                    __Hparam 0000                      __Lparam 0000              __size_of_SetPWM 001C  
            ?i2_TurnOnLights 0001                      _StopPWM 11C4                      ___awdiv 0C06  
               ??i2_StartPWM 0001                   ??_StartPWM 00CD              __size_of___wmul 0036  
               __psmallconst 0800    __end_of_FirstStateRequest 0FFE                      __pcinit 0E58  
                 _lightstate 01D7               _TMR0_WRITE_LOW 11CE                      __ramtop 0800  
                    __ptext0 0CC4                      __ptext1 11A0                      __ptext2 11C4  
                    __ptext3 11CE                      __ptext4 11D8                      __ptext5 1034  
                    __ptext6 105C                      __ptext7 0804                      __ptext8 1122  
                    __ptext9 1200                      _endbyte 0041                    _T1CONbits 000FCD  
                    _counter 0031      __size_of_Interrupt_Init 0022          __size_of_SerialInit 0028  
   __size_of_TMR0_WRITE_HIGH 000A               __pintcode_body 0A44       TMR0_WRITE_LOW@valorLow 00CD  
       end_of_initialization 0EB4                    _INIT_IPR1 1156                    _INIT_IPR2 1184  
                  _INIT_PIE1 1146                    _INIT_PIE2 1176                    _INIT_RCON 122C  
         __end_ofi2_StartPWM 1210                __Lmediumconst 0000                      int_func 0A44  
        i2___wmul@multiplier 0001         __size_ofi2_SetPeriod 0006         __end_of_SetDutyCycle 0E58  
                    postdec1 000FE5                      postdec2 000FDD                      postinc0 000FEE  
                    postinc2 000FDE       __end_of_TMR0_WRITE_LOW 11D8                    _TMR0_INIT 1034  
            ??_RecievingData 0001     __end_ofi2_TMR0_WRITE_LOW 1218                    _TRISAbits 000F92  
                  _TRISBbits 000F93                    _TRISCbits 000F94   __end_of_SecondStateRequest 11C4  
          i2_TMR0_WRITE_HIGH 1218             _timetostartlight 00BC                    i2___awdiv 0D60  
      __size_of_INIT_INTCON2 000E        __size_of_INIT_INTCON3 000A                   ?_INIT_IPR1 0001  
                 ?_INIT_IPR2 0001                   ?_INIT_PIE1 0001                   ?_INIT_PIE2 0001  
                 ?_INIT_RCON 0001           ?i2_TMR0_WRITE_HIGH 0001           _optimaltemperature 0036  
         i2___awdiv@dividend 0007          ??i2_TMR0_WRITE_HIGH 0001              _InitDHT11Driver 11EC  
             __end_of__SPBRG 0803               __end_of_SetPWM 110A              ?_TMR0_WRITE_LOW 0001  
 __size_of_FirstStateRequest 003A               __end_of___wmul 1034                   ?_TMR0_INIT 0001  
           _DHT_StateMachine 00E7                __pidataCOMRAM 11F6            __size_ofi2_SetPWM 0018  
           i2___wmul@product 0005                 _INIT_INTCON2 1192                 _INIT_INTCON3 11E2  
        start_initialization 0E58    __end_ofi2_TMR0_WRITE_HIGH 1220           i2___awdiv@quotient 000D  
          __size_ofi2___wmul 0026                    _ReadFrame 0804                   ?i2___awdiv 0007  
              ??_INIT_INTCON 00CD            ??_TMR0_WRITE_HIGH 00CD                    _SetPeriod 1220  
               ??_SerialInit 00CD                     ??_SetPWM 00DE                ?_TurnOnLights 0001  
                   ??___wmul 00D1                    _TimerUser 002C                  __pdataBANK0 00E7  
           __CFG_LPT1OSC$OFF 000000                TMR0_INIT@T0PS 00CE            __size_of_StartPWM 0008  
              TMR0_INIT@bits 00CD               _Interrupt_Init 10AA                  __pbssCOMRAM 0023  
              __pcstackBANK0 00CD                   ?_ReadFrame 00DF           __end_of_SerialInit 1084  
          _DHTSignalResponse 10CC                 _RecievedData 00BE                  ??_INIT_IPR1 00CD  
                ??_INIT_IPR2 00CD                  ??_INIT_PIE1 00CD                  ??_INIT_PIE2 00CD  
         ?_DHTSignalResponse 0001                  ??_INIT_RCON 00CD                 _lightcounter 00BA  
    __end_of_InitDHT11Driver 11F6                     ?_HighISR 0001        __size_of_SetDutyCycle 0074  
           ??i2_TurnOnLights 0013                   ?_SetPeriod 0001        __end_of_TurnOffLights 11AC  
        ??_DHTSignalResponse 0001                 _lightstate_f 01D8               ??_TurnOnLights 00DF  
        __end_of_INIT_INTCON 11B8                    __pintcode 0008                     ?_StopPWM 0001  
                   ?___awdiv 00D3                  ??_TMR0_INIT 00CD              _optimalhumidity 0035  
     __end_of_Interrupt_Init 10CC           _DecimalTemperature 0028                  __smallconst 0800  
  __end_of_DHTSignalResponse 10EE   __size_ofi2_TMR0_WRITE_HIGH 0008                    _firstbyte 00F1  
               _SetDutyCycle 0DE4                  ??i2___awdiv 000B                    _bytecount 0030  
    __size_ofi2_SetDutyCycle 0068               ___wmul@product 00D1                     _IPR1bits 000F9F  
                   _IPR2bits 000FA2                     _PIE1bits 000F9D                     _PIE2bits 000FA0  
                   i2u109_48 0BB6                     _RCONbits 000FD0     __size_of_ConfigureTimer1 0046  
           __CFG_WDTPS$32768 000000                    _prescaler 0044                     i2_SetPWM 110A  
            ?_Interrupt_Init 0001                   _ADCON0bits 000FC2                   _ADCON2bits 000FC0  
          ___wmul@multiplier 00CD                     _PWMValue 0023   i2TMR0_WRITE_HIGH@valorHigh 0001  
                   i2___wmul 1084            ?i2_TMR0_WRITE_LOW 0001            i2___awdiv@divisor 0009  
         ??i2_TMR0_WRITE_LOW 0001            i2___awdiv@counter 000B                  ??_ReadFrame 00E1  
                _INTCON2bits 000FF1                  _INTCON3bits 000FF0                    copy_data0 0E88  
                  copy_data1 0EA8            _actualtemperature 002E                  _INIT_INTCON 11AC  
           ?_InitDHT11Driver 0001                ??i2_SetPeriod 0001             __size_of_HighISR 0BFE  
                ??_SetPeriod 00CD           _SecondStateRequest 11B8             ??_TMR0_WRITE_LOW 00CD  
                   __Hrparam 0000                     __Lrparam 0000                     _StartPWM 1200  
        ?_SecondStateRequest 0001             __size_of_StopPWM 000A             __size_of___awdiv 00BE  
      i2___wmul@multiplicand 0003            i2SetPWM@dutycycle 0012                  _lightperday 003C  
      __end_of_RecievingData 0F7E   __size_of_DHTSignalResponse 0022     i2TMR0_WRITE_LOW@valorLow 0001  
            _TMR0_WRITE_HIGH 11D8         __end_of_TurnOnLights 1134                 _TimerCounter 002B  
                   __ptext10 10EE                     __ptext11 1220                     __ptext20 1156  
                   __ptext12 0DE4                     __ptext21 11E2                     __ptext13 0FFE  
                   __ptext30 1226                     __ptext22 1192                     __ptext14 0C06  
                   __ptext31 0EC2                     __ptext23 11AC                     __ptext15 10AA  
                   __ptext40 11B8                     __ptext32 1084                     __ptext24 11EC  
                   __ptext16 122C                     __ptext41 0000                     __ptext33 0D60  
                   __ptext25 0F7E                     __ptext17 1176                     __ptext34 1210  
                   __ptext18 1146                     __ptext35 1218                     __ptext27 1134  
                   __ptext19 1184                     __ptext36 0F2A                     __ptext28 1208  
                   __ptext37 10CC                     __ptext29 110A                     __ptext38 0FC4  
                   __ptext39 1230                     _bitcount 002F         ??_SecondStateRequest 0001  
              __size_of_Idle 0002                __size_of_main 009C                     _lasttime 00B8  
            _IntegerHumidity 0029          __end_ofi2_SetPeriod 122C                     int$flags 0045  
          ??_ConfigureTimer1 00CD        __CFG_CPUDIV$OSC1_PLL2 000000                   _INTCONbits 000FF2  
                   intlevel2 0000               i2_SetDutyCycle 0EC2                  _serialcount 0037  
    __end_of_TMR0_WRITE_HIGH 11E2        SetDutyCycle@dutycycle 00DD          __CFG_FOSC$INTOSC_HS 000000  
     __end_ofi2_SetDutyCycle 0F2A                  i2_SetPeriod 1226  
